
bomb:     file format elf32-i386


Disassembly of section .init:

08048760 <_init>:
 8048760:	53                   	push   %ebx
 8048761:	83 ec 08             	sub    $0x8,%esp
 8048764:	e8 47 02 00 00       	call   80489b0 <__x86.get_pc_thunk.bx>
 8048769:	81 c3 97 48 00 00    	add    $0x4897,%ebx
 804876f:	8b 83 fc ff ff ff    	mov    -0x4(%ebx),%eax
 8048775:	85 c0                	test   %eax,%eax
 8048777:	74 05                	je     804877e <_init+0x1e>
 8048779:	e8 f2 01 00 00       	call   8048970 <.plt.got>
 804877e:	83 c4 08             	add    $0x8,%esp
 8048781:	5b                   	pop    %ebx
 8048782:	c3                   	ret    

Disassembly of section .plt:

08048790 <.plt>:
 8048790:	ff 35 04 d0 04 08    	pushl  0x804d004
 8048796:	ff 25 08 d0 04 08    	jmp    *0x804d008
 804879c:	00 00                	add    %al,(%eax)
	...

080487a0 <read@plt>:
 80487a0:	ff 25 0c d0 04 08    	jmp    *0x804d00c
 80487a6:	68 00 00 00 00       	push   $0x0
 80487ab:	e9 e0 ff ff ff       	jmp    8048790 <.plt>

080487b0 <fflush@plt>:
 80487b0:	ff 25 10 d0 04 08    	jmp    *0x804d010
 80487b6:	68 08 00 00 00       	push   $0x8
 80487bb:	e9 d0 ff ff ff       	jmp    8048790 <.plt>

080487c0 <fgets@plt>:
 80487c0:	ff 25 14 d0 04 08    	jmp    *0x804d014
 80487c6:	68 10 00 00 00       	push   $0x10
 80487cb:	e9 c0 ff ff ff       	jmp    8048790 <.plt>

080487d0 <signal@plt>:
 80487d0:	ff 25 18 d0 04 08    	jmp    *0x804d018
 80487d6:	68 18 00 00 00       	push   $0x18
 80487db:	e9 b0 ff ff ff       	jmp    8048790 <.plt>

080487e0 <sleep@plt>:
 80487e0:	ff 25 1c d0 04 08    	jmp    *0x804d01c
 80487e6:	68 20 00 00 00       	push   $0x20
 80487eb:	e9 a0 ff ff ff       	jmp    8048790 <.plt>

080487f0 <alarm@plt>:
 80487f0:	ff 25 20 d0 04 08    	jmp    *0x804d020
 80487f6:	68 28 00 00 00       	push   $0x28
 80487fb:	e9 90 ff ff ff       	jmp    8048790 <.plt>

08048800 <__stack_chk_fail@plt>:
 8048800:	ff 25 24 d0 04 08    	jmp    *0x804d024
 8048806:	68 30 00 00 00       	push   $0x30
 804880b:	e9 80 ff ff ff       	jmp    8048790 <.plt>

08048810 <strcpy@plt>:
 8048810:	ff 25 28 d0 04 08    	jmp    *0x804d028
 8048816:	68 38 00 00 00       	push   $0x38
 804881b:	e9 70 ff ff ff       	jmp    8048790 <.plt>

08048820 <gethostname@plt>:
 8048820:	ff 25 2c d0 04 08    	jmp    *0x804d02c
 8048826:	68 40 00 00 00       	push   $0x40
 804882b:	e9 60 ff ff ff       	jmp    8048790 <.plt>

08048830 <getenv@plt>:
 8048830:	ff 25 30 d0 04 08    	jmp    *0x804d030
 8048836:	68 48 00 00 00       	push   $0x48
 804883b:	e9 50 ff ff ff       	jmp    8048790 <.plt>

08048840 <malloc@plt>:
 8048840:	ff 25 34 d0 04 08    	jmp    *0x804d034
 8048846:	68 50 00 00 00       	push   $0x50
 804884b:	e9 40 ff ff ff       	jmp    8048790 <.plt>

08048850 <puts@plt>:
 8048850:	ff 25 38 d0 04 08    	jmp    *0x804d038
 8048856:	68 58 00 00 00       	push   $0x58
 804885b:	e9 30 ff ff ff       	jmp    8048790 <.plt>

08048860 <__memmove_chk@plt>:
 8048860:	ff 25 3c d0 04 08    	jmp    *0x804d03c
 8048866:	68 60 00 00 00       	push   $0x60
 804886b:	e9 20 ff ff ff       	jmp    8048790 <.plt>

08048870 <exit@plt>:
 8048870:	ff 25 40 d0 04 08    	jmp    *0x804d040
 8048876:	68 68 00 00 00       	push   $0x68
 804887b:	e9 10 ff ff ff       	jmp    8048790 <.plt>

08048880 <__libc_start_main@plt>:
 8048880:	ff 25 44 d0 04 08    	jmp    *0x804d044
 8048886:	68 70 00 00 00       	push   $0x70
 804888b:	e9 00 ff ff ff       	jmp    8048790 <.plt>

08048890 <write@plt>:
 8048890:	ff 25 48 d0 04 08    	jmp    *0x804d048
 8048896:	68 78 00 00 00       	push   $0x78
 804889b:	e9 f0 fe ff ff       	jmp    8048790 <.plt>

080488a0 <strcasecmp@plt>:
 80488a0:	ff 25 4c d0 04 08    	jmp    *0x804d04c
 80488a6:	68 80 00 00 00       	push   $0x80
 80488ab:	e9 e0 fe ff ff       	jmp    8048790 <.plt>

080488b0 <__isoc99_sscanf@plt>:
 80488b0:	ff 25 50 d0 04 08    	jmp    *0x804d050
 80488b6:	68 88 00 00 00       	push   $0x88
 80488bb:	e9 d0 fe ff ff       	jmp    8048790 <.plt>

080488c0 <fopen@plt>:
 80488c0:	ff 25 54 d0 04 08    	jmp    *0x804d054
 80488c6:	68 90 00 00 00       	push   $0x90
 80488cb:	e9 c0 fe ff ff       	jmp    8048790 <.plt>

080488d0 <__errno_location@plt>:
 80488d0:	ff 25 58 d0 04 08    	jmp    *0x804d058
 80488d6:	68 98 00 00 00       	push   $0x98
 80488db:	e9 b0 fe ff ff       	jmp    8048790 <.plt>

080488e0 <__printf_chk@plt>:
 80488e0:	ff 25 5c d0 04 08    	jmp    *0x804d05c
 80488e6:	68 a0 00 00 00       	push   $0xa0
 80488eb:	e9 a0 fe ff ff       	jmp    8048790 <.plt>

080488f0 <socket@plt>:
 80488f0:	ff 25 60 d0 04 08    	jmp    *0x804d060
 80488f6:	68 a8 00 00 00       	push   $0xa8
 80488fb:	e9 90 fe ff ff       	jmp    8048790 <.plt>

08048900 <__fprintf_chk@plt>:
 8048900:	ff 25 64 d0 04 08    	jmp    *0x804d064
 8048906:	68 b0 00 00 00       	push   $0xb0
 804890b:	e9 80 fe ff ff       	jmp    8048790 <.plt>

08048910 <gethostbyname@plt>:
 8048910:	ff 25 68 d0 04 08    	jmp    *0x804d068
 8048916:	68 b8 00 00 00       	push   $0xb8
 804891b:	e9 70 fe ff ff       	jmp    8048790 <.plt>

08048920 <strtol@plt>:
 8048920:	ff 25 6c d0 04 08    	jmp    *0x804d06c
 8048926:	68 c0 00 00 00       	push   $0xc0
 804892b:	e9 60 fe ff ff       	jmp    8048790 <.plt>

08048930 <connect@plt>:
 8048930:	ff 25 70 d0 04 08    	jmp    *0x804d070
 8048936:	68 c8 00 00 00       	push   $0xc8
 804893b:	e9 50 fe ff ff       	jmp    8048790 <.plt>

08048940 <close@plt>:
 8048940:	ff 25 74 d0 04 08    	jmp    *0x804d074
 8048946:	68 d0 00 00 00       	push   $0xd0
 804894b:	e9 40 fe ff ff       	jmp    8048790 <.plt>

08048950 <__ctype_b_loc@plt>:
 8048950:	ff 25 78 d0 04 08    	jmp    *0x804d078
 8048956:	68 d8 00 00 00       	push   $0xd8
 804895b:	e9 30 fe ff ff       	jmp    8048790 <.plt>

08048960 <__sprintf_chk@plt>:
 8048960:	ff 25 7c d0 04 08    	jmp    *0x804d07c
 8048966:	68 e0 00 00 00       	push   $0xe0
 804896b:	e9 20 fe ff ff       	jmp    8048790 <.plt>

Disassembly of section .plt.got:

08048970 <.plt.got>:
 8048970:	ff 25 fc cf 04 08    	jmp    *0x804cffc
 8048976:	66 90                	xchg   %ax,%ax

Disassembly of section .text:

08048980 <_start>:
 8048980:	31 ed                	xor    %ebp,%ebp
 8048982:	5e                   	pop    %esi
 8048983:	89 e1                	mov    %esp,%ecx
 8048985:	83 e4 f0             	and    $0xfffffff0,%esp
 8048988:	50                   	push   %eax
 8048989:	54                   	push   %esp
 804898a:	52                   	push   %edx
 804898b:	68 60 a2 04 08       	push   $0x804a260
 8048990:	68 00 a2 04 08       	push   $0x804a200
 8048995:	51                   	push   %ecx
 8048996:	56                   	push   %esi
 8048997:	68 7b 8a 04 08       	push   $0x8048a7b
 804899c:	e8 df fe ff ff       	call   8048880 <__libc_start_main@plt>
 80489a1:	f4                   	hlt    
 80489a2:	66 90                	xchg   %ax,%ax
 80489a4:	66 90                	xchg   %ax,%ax
 80489a6:	66 90                	xchg   %ax,%ax
 80489a8:	66 90                	xchg   %ax,%ax
 80489aa:	66 90                	xchg   %ax,%ax
 80489ac:	66 90                	xchg   %ax,%ax
 80489ae:	66 90                	xchg   %ax,%ax

080489b0 <__x86.get_pc_thunk.bx>:
 80489b0:	8b 1c 24             	mov    (%esp),%ebx
 80489b3:	c3                   	ret    
 80489b4:	66 90                	xchg   %ax,%ax
 80489b6:	66 90                	xchg   %ax,%ax
 80489b8:	66 90                	xchg   %ax,%ax
 80489ba:	66 90                	xchg   %ax,%ax
 80489bc:	66 90                	xchg   %ax,%ax
 80489be:	66 90                	xchg   %ax,%ax

080489c0 <deregister_tm_clones>:
 80489c0:	b8 c3 d7 04 08       	mov    $0x804d7c3,%eax
 80489c5:	2d c0 d7 04 08       	sub    $0x804d7c0,%eax
 80489ca:	83 f8 06             	cmp    $0x6,%eax
 80489cd:	76 1a                	jbe    80489e9 <deregister_tm_clones+0x29>
 80489cf:	b8 00 00 00 00       	mov    $0x0,%eax
 80489d4:	85 c0                	test   %eax,%eax
 80489d6:	74 11                	je     80489e9 <deregister_tm_clones+0x29>
 80489d8:	55                   	push   %ebp
 80489d9:	89 e5                	mov    %esp,%ebp
 80489db:	83 ec 14             	sub    $0x14,%esp
 80489de:	68 c0 d7 04 08       	push   $0x804d7c0
 80489e3:	ff d0                	call   *%eax
 80489e5:	83 c4 10             	add    $0x10,%esp
 80489e8:	c9                   	leave  
 80489e9:	f3 c3                	repz ret 
 80489eb:	90                   	nop
 80489ec:	8d 74 26 00          	lea    0x0(%esi,%eiz,1),%esi

080489f0 <register_tm_clones>:
 80489f0:	b8 c0 d7 04 08       	mov    $0x804d7c0,%eax
 80489f5:	2d c0 d7 04 08       	sub    $0x804d7c0,%eax
 80489fa:	c1 f8 02             	sar    $0x2,%eax
 80489fd:	89 c2                	mov    %eax,%edx
 80489ff:	c1 ea 1f             	shr    $0x1f,%edx
 8048a02:	01 d0                	add    %edx,%eax
 8048a04:	d1 f8                	sar    %eax
 8048a06:	74 1b                	je     8048a23 <register_tm_clones+0x33>
 8048a08:	ba 00 00 00 00       	mov    $0x0,%edx
 8048a0d:	85 d2                	test   %edx,%edx
 8048a0f:	74 12                	je     8048a23 <register_tm_clones+0x33>
 8048a11:	55                   	push   %ebp
 8048a12:	89 e5                	mov    %esp,%ebp
 8048a14:	83 ec 10             	sub    $0x10,%esp
 8048a17:	50                   	push   %eax
 8048a18:	68 c0 d7 04 08       	push   $0x804d7c0
 8048a1d:	ff d2                	call   *%edx
 8048a1f:	83 c4 10             	add    $0x10,%esp
 8048a22:	c9                   	leave  
 8048a23:	f3 c3                	repz ret 
 8048a25:	8d 74 26 00          	lea    0x0(%esi,%eiz,1),%esi
 8048a29:	8d bc 27 00 00 00 00 	lea    0x0(%edi,%eiz,1),%edi

08048a30 <__do_global_dtors_aux>:
 8048a30:	80 3d e8 d7 04 08 00 	cmpb   $0x0,0x804d7e8
 8048a37:	75 13                	jne    8048a4c <__do_global_dtors_aux+0x1c>
 8048a39:	55                   	push   %ebp
 8048a3a:	89 e5                	mov    %esp,%ebp
 8048a3c:	83 ec 08             	sub    $0x8,%esp
 8048a3f:	e8 7c ff ff ff       	call   80489c0 <deregister_tm_clones>
 8048a44:	c6 05 e8 d7 04 08 01 	movb   $0x1,0x804d7e8
 8048a4b:	c9                   	leave  
 8048a4c:	f3 c3                	repz ret 
 8048a4e:	66 90                	xchg   %ax,%ax

08048a50 <frame_dummy>:
 8048a50:	b8 10 cf 04 08       	mov    $0x804cf10,%eax
 8048a55:	8b 10                	mov    (%eax),%edx
 8048a57:	85 d2                	test   %edx,%edx
 8048a59:	75 05                	jne    8048a60 <frame_dummy+0x10>
 8048a5b:	eb 93                	jmp    80489f0 <register_tm_clones>
 8048a5d:	8d 76 00             	lea    0x0(%esi),%esi
 8048a60:	ba 00 00 00 00       	mov    $0x0,%edx
 8048a65:	85 d2                	test   %edx,%edx
 8048a67:	74 f2                	je     8048a5b <frame_dummy+0xb>
 8048a69:	55                   	push   %ebp
 8048a6a:	89 e5                	mov    %esp,%ebp
 8048a6c:	83 ec 14             	sub    $0x14,%esp
 8048a6f:	50                   	push   %eax
 8048a70:	ff d2                	call   *%edx
 8048a72:	83 c4 10             	add    $0x10,%esp
 8048a75:	c9                   	leave  
 8048a76:	e9 75 ff ff ff       	jmp    80489f0 <register_tm_clones>

08048a7b <main>:
 8048a7b:	8d 4c 24 04          	lea    0x4(%esp),%ecx
 8048a7f:	83 e4 f0             	and    $0xfffffff0,%esp
 8048a82:	ff 71 fc             	pushl  -0x4(%ecx)
 8048a85:	55                   	push   %ebp
 8048a86:	89 e5                	mov    %esp,%ebp
 8048a88:	53                   	push   %ebx
 8048a89:	51                   	push   %ecx
 8048a8a:	8b 01                	mov    (%ecx),%eax
 8048a8c:	8b 59 04             	mov    0x4(%ecx),%ebx
 8048a8f:	83 f8 01             	cmp    $0x1,%eax
 8048a92:	75 0c                	jne    8048aa0 <main+0x25>
 8048a94:	a1 e0 d7 04 08       	mov    0x804d7e0,%eax
 8048a99:	a3 f0 d7 04 08       	mov    %eax,0x804d7f0
 8048a9e:	eb 5b                	jmp    8048afb <main+0x80>
 8048aa0:	83 f8 02             	cmp    $0x2,%eax
 8048aa3:	75 39                	jne    8048ade <main+0x63>
 8048aa5:	83 ec 08             	sub    $0x8,%esp
 8048aa8:	68 88 a2 04 08       	push   $0x804a288
 8048aad:	ff 73 04             	pushl  0x4(%ebx)
 8048ab0:	e8 0b fe ff ff       	call   80488c0 <fopen@plt>
 8048ab5:	a3 f0 d7 04 08       	mov    %eax,0x804d7f0
 8048aba:	83 c4 10             	add    $0x10,%esp
 8048abd:	85 c0                	test   %eax,%eax
 8048abf:	75 3a                	jne    8048afb <main+0x80>
 8048ac1:	ff 73 04             	pushl  0x4(%ebx)
 8048ac4:	ff 33                	pushl  (%ebx)
 8048ac6:	68 8a a2 04 08       	push   $0x804a28a
 8048acb:	6a 01                	push   $0x1
 8048acd:	e8 0e fe ff ff       	call   80488e0 <__printf_chk@plt>
 8048ad2:	c7 04 24 08 00 00 00 	movl   $0x8,(%esp)
 8048ad9:	e8 92 fd ff ff       	call   8048870 <exit@plt>
 8048ade:	83 ec 04             	sub    $0x4,%esp
 8048ae1:	ff 33                	pushl  (%ebx)
 8048ae3:	68 a7 a2 04 08       	push   $0x804a2a7
 8048ae8:	6a 01                	push   $0x1
 8048aea:	e8 f1 fd ff ff       	call   80488e0 <__printf_chk@plt>
 8048aef:	c7 04 24 08 00 00 00 	movl   $0x8,(%esp)
 8048af6:	e8 75 fd ff ff       	call   8048870 <exit@plt>
 8048afb:	e8 b2 07 00 00       	call   80492b2 <initialize_bomb>
 8048b00:	83 ec 0c             	sub    $0xc,%esp
 8048b03:	68 18 a3 04 08       	push   $0x804a318
 8048b08:	e8 43 fd ff ff       	call   8048850 <puts@plt>
 8048b0d:	c7 04 24 54 a3 04 08 	movl   $0x804a354,(%esp)
 8048b14:	e8 37 fd ff ff       	call   8048850 <puts@plt>
 8048b19:	e8 61 0a 00 00       	call   804957f <read_line>
 8048b1e:	89 04 24             	mov    %eax,(%esp)
 8048b21:	e8 07 01 00 00       	call   8048c2d <phase_1>
 8048b26:	e8 4d 0b 00 00       	call   8049678 <phase_defused>
 8048b2b:	c7 04 24 80 a3 04 08 	movl   $0x804a380,(%esp)
 8048b32:	e8 19 fd ff ff       	call   8048850 <puts@plt>
 8048b37:	e8 43 0a 00 00       	call   804957f <read_line>
 8048b3c:	89 04 24             	mov    %eax,(%esp)
 8048b3f:	e8 45 01 00 00       	call   8048c89 <phase_2>
 8048b44:	e8 2f 0b 00 00       	call   8049678 <phase_defused>
 8048b49:	c7 04 24 c1 a2 04 08 	movl   $0x804a2c1,(%esp)
 8048b50:	e8 fb fc ff ff       	call   8048850 <puts@plt>
 8048b55:	e8 25 0a 00 00       	call   804957f <read_line>
 8048b5a:	89 04 24             	mov    %eax,(%esp)
 8048b5d:	e8 48 01 00 00       	call   8048caa <phase_3>
 8048b62:	e8 11 0b 00 00       	call   8049678 <phase_defused>
 8048b67:	c7 04 24 df a2 04 08 	movl   $0x804a2df,(%esp)
 8048b6e:	e8 dd fc ff ff       	call   8048850 <puts@plt>
 8048b73:	e8 07 0a 00 00       	call   804957f <read_line>
 8048b78:	89 04 24             	mov    %eax,(%esp)
 8048b7b:	e8 b3 01 00 00       	call   8048d33 <phase_4>
 8048b80:	e8 f3 0a 00 00       	call   8049678 <phase_defused>
 8048b85:	c7 04 24 ac a3 04 08 	movl   $0x804a3ac,(%esp)
 8048b8c:	e8 bf fc ff ff       	call   8048850 <puts@plt>
 8048b91:	e8 e9 09 00 00       	call   804957f <read_line>
 8048b96:	89 04 24             	mov    %eax,(%esp)
 8048b99:	e8 00 02 00 00       	call   8048d9e <phase_5>
 8048b9e:	e8 d5 0a 00 00       	call   8049678 <phase_defused>
 8048ba3:	c7 04 24 f0 a2 04 08 	movl   $0x804a2f0,(%esp)
 8048baa:	e8 a1 fc ff ff       	call   8048850 <puts@plt>
 8048baf:	e8 cb 09 00 00       	call   804957f <read_line>
 8048bb4:	89 04 24             	mov    %eax,(%esp)
 8048bb7:	e8 a6 03 00 00       	call   8048f62 <phase_6>
 8048bbc:	e8 b7 0a 00 00       	call   8049678 <phase_defused>
 8048bc1:	c7 04 24 d0 a3 04 08 	movl   $0x804a3d0,(%esp)
 8048bc8:	e8 83 fc ff ff       	call   8048850 <puts@plt>
 8048bcd:	e8 ad 09 00 00       	call   804957f <read_line>
 8048bd2:	89 04 24             	mov    %eax,(%esp)
 8048bd5:	e8 fd 03 00 00       	call   8048fd7 <phase_7>
 8048bda:	e8 99 0a 00 00       	call   8049678 <phase_defused>
 8048bdf:	c7 04 24 f0 a3 04 08 	movl   $0x804a3f0,(%esp)
 8048be6:	e8 65 fc ff ff       	call   8048850 <puts@plt>
 8048beb:	e8 8f 09 00 00       	call   804957f <read_line>
 8048bf0:	89 04 24             	mov    %eax,(%esp)
 8048bf3:	e8 27 04 00 00       	call   804901f <phase_8>
 8048bf8:	e8 7b 0a 00 00       	call   8049678 <phase_defused>
 8048bfd:	c7 04 24 0e a3 04 08 	movl   $0x804a30e,(%esp)
 8048c04:	e8 47 fc ff ff       	call   8048850 <puts@plt>
 8048c09:	e8 71 09 00 00       	call   804957f <read_line>
 8048c0e:	89 04 24             	mov    %eax,(%esp)
 8048c11:	e8 5a 05 00 00       	call   8049170 <phase_9>
 8048c16:	e8 5d 0a 00 00       	call   8049678 <phase_defused>
 8048c1b:	83 c4 10             	add    $0x10,%esp
 8048c1e:	b8 00 00 00 00       	mov    $0x0,%eax
 8048c23:	8d 65 f8             	lea    -0x8(%ebp),%esp
 8048c26:	59                   	pop    %ecx
 8048c27:	5b                   	pop    %ebx
 8048c28:	5d                   	pop    %ebp
 8048c29:	8d 61 fc             	lea    -0x4(%ecx),%esp
 8048c2c:	c3                   	ret    

08048c2d <phase_1>:
 8048c2d:	83 ec 20             	sub    $0x20,%esp
 8048c30:	65 a1 14 00 00 00    	mov    %gs:0x14,%eax
 8048c36:	89 44 24 10          	mov    %eax,0x10(%esp)
 8048c3a:	31 c0                	xor    %eax,%eax
 8048c3c:	c7 44 24 0c 00 00 00 	movl   $0x0,0xc(%esp)
 8048c43:	00 
 8048c44:	8d 44 24 0c          	lea    0xc(%esp),%eax
 8048c48:	50                   	push   %eax
 8048c49:	68 15 a4 04 08       	push   $0x804a415
 8048c4e:	ff 74 24 2c          	pushl  0x2c(%esp)
 8048c52:	e8 59 fc ff ff       	call   80488b0 <__isoc99_sscanf@plt>
 8048c57:	83 c4 10             	add    $0x10,%esp
 8048c5a:	83 f8 01             	cmp    $0x1,%eax
 8048c5d:	74 05                	je     8048c64 <phase_1+0x37>
 8048c5f:	e8 a3 08 00 00       	call   8049507 <explode_bomb>
 8048c64:	81 7c 24 08 00 03 00 	cmpl   $0x300,0x8(%esp)
 8048c6b:	00 
 8048c6c:	74 05                	je     8048c73 <phase_1+0x46>
 8048c6e:	e8 94 08 00 00       	call   8049507 <explode_bomb>
 8048c73:	8b 44 24 0c          	mov    0xc(%esp),%eax
 8048c77:	65 33 05 14 00 00 00 	xor    %gs:0x14,%eax
 8048c7e:	74 05                	je     8048c85 <phase_1+0x58>
 8048c80:	e8 7b fb ff ff       	call   8048800 <__stack_chk_fail@plt>
 8048c85:	83 c4 1c             	add    $0x1c,%esp
 8048c88:	c3                   	ret    

08048c89 <phase_2>:
 8048c89:	83 ec 14             	sub    $0x14,%esp
 8048c8c:	68 18 a4 04 08       	push   $0x804a418
 8048c91:	ff 74 24 1c          	pushl  0x1c(%esp)
 8048c95:	e8 b3 05 00 00       	call   804924d <strings_not_equal>
 8048c9a:	83 c4 10             	add    $0x10,%esp
 8048c9d:	85 c0                	test   %eax,%eax
 8048c9f:	74 05                	je     8048ca6 <phase_2+0x1d>
 8048ca1:	e8 61 08 00 00       	call   8049507 <explode_bomb>
 8048ca6:	83 c4 0c             	add    $0xc,%esp
 8048ca9:	c3                   	ret    

08048caa <phase_3>:
 8048caa:	83 ec 18             	sub    $0x18,%esp
 8048cad:	68 48 a4 04 08       	push   $0x804a448
 8048cb2:	e8 77 05 00 00       	call   804922e <string_length>
 8048cb7:	83 c0 01             	add    $0x1,%eax
 8048cba:	89 04 24             	mov    %eax,(%esp)
 8048cbd:	e8 7e fb ff ff       	call   8048840 <malloc@plt>
 8048cc2:	c7 00 54 68 65 20    	movl   $0x20656854,(%eax)
 8048cc8:	c7 40 04 71 75 69 63 	movl   $0x63697571,0x4(%eax)
 8048ccf:	c7 40 08 6b 20 62 72 	movl   $0x7262206b,0x8(%eax)
 8048cd6:	c7 40 0c 6f 77 6e 20 	movl   $0x206e776f,0xc(%eax)
 8048cdd:	c7 40 10 66 6f 78 20 	movl   $0x20786f66,0x10(%eax)
 8048ce4:	c7 40 14 6a 75 6d 70 	movl   $0x706d756a,0x14(%eax)
 8048ceb:	c7 40 18 73 20 6f 76 	movl   $0x766f2073,0x18(%eax)
 8048cf2:	c7 40 1c 65 72 20 74 	movl   $0x74207265,0x1c(%eax)
 8048cf9:	c7 40 20 68 65 20 6c 	movl   $0x6c206568,0x20(%eax)
 8048d00:	c7 40 24 61 7a 79 20 	movl   $0x20797a61,0x24(%eax)
 8048d07:	c7 40 28 64 6f 67 2e 	movl   $0x2e676f64,0x28(%eax)
 8048d0e:	c6 40 2c 00          	movb   $0x0,0x2c(%eax)
 8048d12:	c6 40 1b 64          	movb   $0x64,0x1b(%eax)
 8048d16:	83 c4 08             	add    $0x8,%esp
 8048d19:	50                   	push   %eax
 8048d1a:	ff 74 24 1c          	pushl  0x1c(%esp)
 8048d1e:	e8 2a 05 00 00       	call   804924d <strings_not_equal>
 8048d23:	83 c4 10             	add    $0x10,%esp
 8048d26:	85 c0                	test   %eax,%eax
 8048d28:	74 05                	je     8048d2f <phase_3+0x85>
 8048d2a:	e8 d8 07 00 00       	call   8049507 <explode_bomb>
 8048d2f:	83 c4 0c             	add    $0xc,%esp
 8048d32:	c3                   	ret    

08048d33 <phase_4>:
 8048d33:	56                   	push   %esi
 8048d34:	53                   	push   %ebx
 8048d35:	83 ec 2c             	sub    $0x2c,%esp
 8048d38:	65 a1 14 00 00 00    	mov    %gs:0x14,%eax
 8048d3e:	89 44 24 24          	mov    %eax,0x24(%esp)
 8048d42:	31 c0                	xor    %eax,%eax
 8048d44:	8d 44 24 0c          	lea    0xc(%esp),%eax
 8048d48:	50                   	push   %eax
 8048d49:	ff 74 24 3c          	pushl  0x3c(%esp)
 8048d4d:	e8 f2 07 00 00       	call   8049544 <read_six_numbers>
 8048d52:	83 c4 10             	add    $0x10,%esp
 8048d55:	83 7c 24 04 01       	cmpl   $0x1,0x4(%esp)
 8048d5a:	75 07                	jne    8048d63 <phase_4+0x30>
 8048d5c:	83 7c 24 08 04       	cmpl   $0x4,0x8(%esp)
 8048d61:	74 05                	je     8048d68 <phase_4+0x35>
 8048d63:	e8 9f 07 00 00       	call   8049507 <explode_bomb>
 8048d68:	8d 5c 24 04          	lea    0x4(%esp),%ebx
 8048d6c:	8d 74 24 14          	lea    0x14(%esp),%esi
 8048d70:	8b 43 04             	mov    0x4(%ebx),%eax
 8048d73:	03 03                	add    (%ebx),%eax
 8048d75:	39 43 08             	cmp    %eax,0x8(%ebx)
 8048d78:	74 05                	je     8048d7f <phase_4+0x4c>
 8048d7a:	e8 88 07 00 00       	call   8049507 <explode_bomb>
 8048d7f:	83 c3 04             	add    $0x4,%ebx
 8048d82:	39 f3                	cmp    %esi,%ebx
 8048d84:	75 ea                	jne    8048d70 <phase_4+0x3d>
 8048d86:	8b 44 24 1c          	mov    0x1c(%esp),%eax
 8048d8a:	65 33 05 14 00 00 00 	xor    %gs:0x14,%eax
 8048d91:	74 05                	je     8048d98 <phase_4+0x65>
 8048d93:	e8 68 fa ff ff       	call   8048800 <__stack_chk_fail@plt>
 8048d98:	83 c4 24             	add    $0x24,%esp
 8048d9b:	5b                   	pop    %ebx
 8048d9c:	5e                   	pop    %esi
 8048d9d:	c3                   	ret    

08048d9e <phase_5>:
 8048d9e:	83 ec 28             	sub    $0x28,%esp
 8048da1:	65 a1 14 00 00 00    	mov    %gs:0x14,%eax
 8048da7:	89 44 24 18          	mov    %eax,0x18(%esp)
 8048dab:	31 c0                	xor    %eax,%eax
 8048dad:	8d 44 24 14          	lea    0x14(%esp),%eax
 8048db1:	50                   	push   %eax
 8048db2:	8d 44 24 13          	lea    0x13(%esp),%eax
 8048db6:	50                   	push   %eax
 8048db7:	8d 44 24 18          	lea    0x18(%esp),%eax
 8048dbb:	50                   	push   %eax
 8048dbc:	68 0f a4 04 08       	push   $0x804a40f
 8048dc1:	ff 74 24 3c          	pushl  0x3c(%esp)
 8048dc5:	e8 e6 fa ff ff       	call   80488b0 <__isoc99_sscanf@plt>
 8048dca:	83 c4 20             	add    $0x20,%esp
 8048dcd:	83 f8 02             	cmp    $0x2,%eax
 8048dd0:	7f 05                	jg     8048dd7 <phase_5+0x39>
 8048dd2:	e8 30 07 00 00       	call   8049507 <explode_bomb>
 8048dd7:	83 7c 24 04 07       	cmpl   $0x7,0x4(%esp)
 8048ddc:	0f 87 fc 00 00 00    	ja     8048ede <phase_5+0x140>
 8048de2:	8b 44 24 04          	mov    0x4(%esp),%eax
 8048de6:	ff 24 85 80 a4 04 08 	jmp    *0x804a480(,%eax,4)
 8048ded:	b8 62 00 00 00       	mov    $0x62,%eax
 8048df2:	81 7c 24 08 bb 03 00 	cmpl   $0x3bb,0x8(%esp)
 8048df9:	00 
 8048dfa:	0f 84 e8 00 00 00    	je     8048ee8 <phase_5+0x14a>
 8048e00:	e8 02 07 00 00       	call   8049507 <explode_bomb>
 8048e05:	b8 62 00 00 00       	mov    $0x62,%eax
 8048e0a:	e9 d9 00 00 00       	jmp    8048ee8 <phase_5+0x14a>
 8048e0f:	b8 66 00 00 00       	mov    $0x66,%eax
 8048e14:	81 7c 24 08 85 02 00 	cmpl   $0x285,0x8(%esp)
 8048e1b:	00 
 8048e1c:	0f 84 c6 00 00 00    	je     8048ee8 <phase_5+0x14a>
 8048e22:	e8 e0 06 00 00       	call   8049507 <explode_bomb>
 8048e27:	b8 66 00 00 00       	mov    $0x66,%eax
 8048e2c:	e9 b7 00 00 00       	jmp    8048ee8 <phase_5+0x14a>
 8048e31:	b8 70 00 00 00       	mov    $0x70,%eax
 8048e36:	81 7c 24 08 9d 03 00 	cmpl   $0x39d,0x8(%esp)
 8048e3d:	00 
 8048e3e:	0f 84 a4 00 00 00    	je     8048ee8 <phase_5+0x14a>
 8048e44:	e8 be 06 00 00       	call   8049507 <explode_bomb>
 8048e49:	b8 70 00 00 00       	mov    $0x70,%eax
 8048e4e:	e9 95 00 00 00       	jmp    8048ee8 <phase_5+0x14a>
 8048e53:	b8 61 00 00 00       	mov    $0x61,%eax
 8048e58:	81 7c 24 08 b7 02 00 	cmpl   $0x2b7,0x8(%esp)
 8048e5f:	00 
 8048e60:	0f 84 82 00 00 00    	je     8048ee8 <phase_5+0x14a>
 8048e66:	e8 9c 06 00 00       	call   8049507 <explode_bomb>
 8048e6b:	b8 61 00 00 00       	mov    $0x61,%eax
 8048e70:	eb 76                	jmp    8048ee8 <phase_5+0x14a>
 8048e72:	b8 76 00 00 00       	mov    $0x76,%eax
 8048e77:	81 7c 24 08 8c 03 00 	cmpl   $0x38c,0x8(%esp)
 8048e7e:	00 
 8048e7f:	74 67                	je     8048ee8 <phase_5+0x14a>
 8048e81:	e8 81 06 00 00       	call   8049507 <explode_bomb>
 8048e86:	b8 76 00 00 00       	mov    $0x76,%eax
 8048e8b:	eb 5b                	jmp    8048ee8 <phase_5+0x14a>
 8048e8d:	b8 61 00 00 00       	mov    $0x61,%eax
 8048e92:	81 7c 24 08 7b 03 00 	cmpl   $0x37b,0x8(%esp)
 8048e99:	00 
 8048e9a:	74 4c                	je     8048ee8 <phase_5+0x14a>
 8048e9c:	e8 66 06 00 00       	call   8049507 <explode_bomb>
 8048ea1:	b8 61 00 00 00       	mov    $0x61,%eax
 8048ea6:	eb 40                	jmp    8048ee8 <phase_5+0x14a>
 8048ea8:	b8 68 00 00 00       	mov    $0x68,%eax
 8048ead:	81 7c 24 08 8c 00 00 	cmpl   $0x8c,0x8(%esp)
 8048eb4:	00 
 8048eb5:	74 31                	je     8048ee8 <phase_5+0x14a>
 8048eb7:	e8 4b 06 00 00       	call   8049507 <explode_bomb>
 8048ebc:	b8 68 00 00 00       	mov    $0x68,%eax
 8048ec1:	eb 25                	jmp    8048ee8 <phase_5+0x14a>
 8048ec3:	b8 71 00 00 00       	mov    $0x71,%eax
 8048ec8:	81 7c 24 08 b7 03 00 	cmpl   $0x3b7,0x8(%esp)
 8048ecf:	00 
 8048ed0:	74 16                	je     8048ee8 <phase_5+0x14a>
 8048ed2:	e8 30 06 00 00       	call   8049507 <explode_bomb>
 8048ed7:	b8 71 00 00 00       	mov    $0x71,%eax
 8048edc:	eb 0a                	jmp    8048ee8 <phase_5+0x14a>
 8048ede:	e8 24 06 00 00       	call   8049507 <explode_bomb>
 8048ee3:	b8 75 00 00 00       	mov    $0x75,%eax
 8048ee8:	3a 44 24 03          	cmp    0x3(%esp),%al
 8048eec:	74 05                	je     8048ef3 <phase_5+0x155>
 8048eee:	e8 14 06 00 00       	call   8049507 <explode_bomb>
 8048ef3:	8b 44 24 0c          	mov    0xc(%esp),%eax
 8048ef7:	65 33 05 14 00 00 00 	xor    %gs:0x14,%eax
 8048efe:	74 05                	je     8048f05 <phase_5+0x167>
 8048f00:	e8 fb f8 ff ff       	call   8048800 <__stack_chk_fail@plt>
 8048f05:	83 c4 1c             	add    $0x1c,%esp
 8048f08:	c3                   	ret    

08048f09 <func6>:
 8048f09:	56                   	push   %esi
 8048f0a:	53                   	push   %ebx
 8048f0b:	83 ec 04             	sub    $0x4,%esp
 8048f0e:	8b 54 24 10          	mov    0x10(%esp),%edx
 8048f12:	8b 74 24 14          	mov    0x14(%esp),%esi
 8048f16:	8b 4c 24 18          	mov    0x18(%esp),%ecx
 8048f1a:	89 c8                	mov    %ecx,%eax
 8048f1c:	29 f0                	sub    %esi,%eax
 8048f1e:	89 c3                	mov    %eax,%ebx
 8048f20:	c1 eb 1f             	shr    $0x1f,%ebx
 8048f23:	01 d8                	add    %ebx,%eax
 8048f25:	d1 f8                	sar    %eax
 8048f27:	8d 1c 30             	lea    (%eax,%esi,1),%ebx
 8048f2a:	39 d3                	cmp    %edx,%ebx
 8048f2c:	7e 15                	jle    8048f43 <func6+0x3a>
 8048f2e:	83 ec 04             	sub    $0x4,%esp
 8048f31:	8d 43 ff             	lea    -0x1(%ebx),%eax
 8048f34:	50                   	push   %eax
 8048f35:	56                   	push   %esi
 8048f36:	52                   	push   %edx
 8048f37:	e8 cd ff ff ff       	call   8048f09 <func6>
 8048f3c:	83 c4 10             	add    $0x10,%esp
 8048f3f:	01 d8                	add    %ebx,%eax
 8048f41:	eb 19                	jmp    8048f5c <func6+0x53>
 8048f43:	89 d8                	mov    %ebx,%eax
 8048f45:	39 d3                	cmp    %edx,%ebx
 8048f47:	7d 13                	jge    8048f5c <func6+0x53>
 8048f49:	83 ec 04             	sub    $0x4,%esp
 8048f4c:	51                   	push   %ecx
 8048f4d:	8d 43 01             	lea    0x1(%ebx),%eax
 8048f50:	50                   	push   %eax
 8048f51:	52                   	push   %edx
 8048f52:	e8 b2 ff ff ff       	call   8048f09 <func6>
 8048f57:	83 c4 10             	add    $0x10,%esp
 8048f5a:	01 d8                	add    %ebx,%eax
 8048f5c:	83 c4 04             	add    $0x4,%esp
 8048f5f:	5b                   	pop    %ebx
 8048f60:	5e                   	pop    %esi
 8048f61:	c3                   	ret    

08048f62 <phase_6>:
 8048f62:	83 ec 1c             	sub    $0x1c,%esp
 8048f65:	65 a1 14 00 00 00    	mov    %gs:0x14,%eax
 8048f6b:	89 44 24 0c          	mov    %eax,0xc(%esp)
 8048f6f:	31 c0                	xor    %eax,%eax
 8048f71:	8d 44 24 08          	lea    0x8(%esp),%eax
 8048f75:	50                   	push   %eax
 8048f76:	8d 44 24 08          	lea    0x8(%esp),%eax
 8048f7a:	50                   	push   %eax
 8048f7b:	68 c1 a6 04 08       	push   $0x804a6c1
 8048f80:	ff 74 24 2c          	pushl  0x2c(%esp)
 8048f84:	e8 27 f9 ff ff       	call   80488b0 <__isoc99_sscanf@plt>
 8048f89:	83 c4 10             	add    $0x10,%esp
 8048f8c:	83 f8 02             	cmp    $0x2,%eax
 8048f8f:	75 07                	jne    8048f98 <phase_6+0x36>
 8048f91:	83 7c 24 04 0e       	cmpl   $0xe,0x4(%esp)
 8048f96:	76 05                	jbe    8048f9d <phase_6+0x3b>
 8048f98:	e8 6a 05 00 00       	call   8049507 <explode_bomb>
 8048f9d:	83 ec 04             	sub    $0x4,%esp
 8048fa0:	6a 0e                	push   $0xe
 8048fa2:	6a 00                	push   $0x0
 8048fa4:	ff 74 24 10          	pushl  0x10(%esp)
 8048fa8:	e8 5c ff ff ff       	call   8048f09 <func6>
 8048fad:	83 c4 10             	add    $0x10,%esp
 8048fb0:	83 f8 13             	cmp    $0x13,%eax
 8048fb3:	75 07                	jne    8048fbc <phase_6+0x5a>
 8048fb5:	83 7c 24 08 13       	cmpl   $0x13,0x8(%esp)
 8048fba:	74 05                	je     8048fc1 <phase_6+0x5f>
 8048fbc:	e8 46 05 00 00       	call   8049507 <explode_bomb>
 8048fc1:	8b 44 24 0c          	mov    0xc(%esp),%eax
 8048fc5:	65 33 05 14 00 00 00 	xor    %gs:0x14,%eax
 8048fcc:	74 05                	je     8048fd3 <phase_6+0x71>
 8048fce:	e8 2d f8 ff ff       	call   8048800 <__stack_chk_fail@plt>
 8048fd3:	83 c4 1c             	add    $0x1c,%esp
 8048fd6:	c3                   	ret    

08048fd7 <phase_7>:
 8048fd7:	53                   	push   %ebx
 8048fd8:	83 ec 14             	sub    $0x14,%esp
 8048fdb:	8b 5c 24 1c          	mov    0x1c(%esp),%ebx
 8048fdf:	53                   	push   %ebx
 8048fe0:	e8 49 02 00 00       	call   804922e <string_length>
 8048fe5:	83 c4 10             	add    $0x10,%esp
 8048fe8:	83 f8 06             	cmp    $0x6,%eax
 8048feb:	74 05                	je     8048ff2 <phase_7+0x1b>
 8048fed:	e8 15 05 00 00       	call   8049507 <explode_bomb>
 8048ff2:	89 d8                	mov    %ebx,%eax
 8048ff4:	83 c3 06             	add    $0x6,%ebx
 8048ff7:	b9 00 00 00 00       	mov    $0x0,%ecx
 8048ffc:	0f b6 10             	movzbl (%eax),%edx
 8048fff:	83 e2 0f             	and    $0xf,%edx
 8049002:	03 0c 95 a0 a4 04 08 	add    0x804a4a0(,%edx,4),%ecx
 8049009:	83 c0 01             	add    $0x1,%eax
 804900c:	39 d8                	cmp    %ebx,%eax
 804900e:	75 ec                	jne    8048ffc <phase_7+0x25>
 8049010:	83 f9 3a             	cmp    $0x3a,%ecx
 8049013:	74 05                	je     804901a <phase_7+0x43>
 8049015:	e8 ed 04 00 00       	call   8049507 <explode_bomb>
 804901a:	83 c4 08             	add    $0x8,%esp
 804901d:	5b                   	pop    %ebx
 804901e:	c3                   	ret    

0804901f <phase_8>:
 804901f:	56                   	push   %esi
 8049020:	53                   	push   %ebx
 8049021:	83 ec 4c             	sub    $0x4c,%esp
 8049024:	65 a1 14 00 00 00    	mov    %gs:0x14,%eax
 804902a:	89 44 24 44          	mov    %eax,0x44(%esp)
 804902e:	31 c0                	xor    %eax,%eax
 8049030:	8d 44 24 14          	lea    0x14(%esp),%eax
 8049034:	50                   	push   %eax
 8049035:	ff 74 24 5c          	pushl  0x5c(%esp)
 8049039:	e8 06 05 00 00       	call   8049544 <read_six_numbers>
 804903e:	83 c4 10             	add    $0x10,%esp
 8049041:	be 00 00 00 00       	mov    $0x0,%esi
 8049046:	8b 44 b4 0c          	mov    0xc(%esp,%esi,4),%eax
 804904a:	83 e8 01             	sub    $0x1,%eax
 804904d:	83 f8 05             	cmp    $0x5,%eax
 8049050:	76 05                	jbe    8049057 <phase_8+0x38>
 8049052:	e8 b0 04 00 00       	call   8049507 <explode_bomb>
 8049057:	83 c6 01             	add    $0x1,%esi
 804905a:	83 fe 06             	cmp    $0x6,%esi
 804905d:	74 1b                	je     804907a <phase_8+0x5b>
 804905f:	89 f3                	mov    %esi,%ebx
 8049061:	8b 44 9c 0c          	mov    0xc(%esp,%ebx,4),%eax
 8049065:	39 44 b4 08          	cmp    %eax,0x8(%esp,%esi,4)
 8049069:	75 05                	jne    8049070 <phase_8+0x51>
 804906b:	e8 97 04 00 00       	call   8049507 <explode_bomb>
 8049070:	83 c3 01             	add    $0x1,%ebx
 8049073:	83 fb 05             	cmp    $0x5,%ebx
 8049076:	7e e9                	jle    8049061 <phase_8+0x42>
 8049078:	eb cc                	jmp    8049046 <phase_8+0x27>
 804907a:	8d 44 24 0c          	lea    0xc(%esp),%eax
 804907e:	8d 5c 24 24          	lea    0x24(%esp),%ebx
 8049082:	b9 07 00 00 00       	mov    $0x7,%ecx
 8049087:	89 ca                	mov    %ecx,%edx
 8049089:	2b 10                	sub    (%eax),%edx
 804908b:	89 10                	mov    %edx,(%eax)
 804908d:	83 c0 04             	add    $0x4,%eax
 8049090:	39 c3                	cmp    %eax,%ebx
 8049092:	75 f3                	jne    8049087 <phase_8+0x68>
 8049094:	bb 00 00 00 00       	mov    $0x0,%ebx
 8049099:	eb 16                	jmp    80490b1 <phase_8+0x92>
 804909b:	8b 52 08             	mov    0x8(%edx),%edx
 804909e:	83 c0 01             	add    $0x1,%eax
 80490a1:	39 c8                	cmp    %ecx,%eax
 80490a3:	75 f6                	jne    804909b <phase_8+0x7c>
 80490a5:	89 54 b4 24          	mov    %edx,0x24(%esp,%esi,4)
 80490a9:	83 c3 01             	add    $0x1,%ebx
 80490ac:	83 fb 06             	cmp    $0x6,%ebx
 80490af:	74 17                	je     80490c8 <phase_8+0xa9>
 80490b1:	89 de                	mov    %ebx,%esi
 80490b3:	8b 4c 9c 0c          	mov    0xc(%esp,%ebx,4),%ecx
 80490b7:	b8 01 00 00 00       	mov    $0x1,%eax
 80490bc:	ba 54 d1 04 08       	mov    $0x804d154,%edx
 80490c1:	83 f9 01             	cmp    $0x1,%ecx
 80490c4:	7f d5                	jg     804909b <phase_8+0x7c>
 80490c6:	eb dd                	jmp    80490a5 <phase_8+0x86>
 80490c8:	8b 5c 24 24          	mov    0x24(%esp),%ebx
 80490cc:	8d 44 24 24          	lea    0x24(%esp),%eax
 80490d0:	8d 74 24 38          	lea    0x38(%esp),%esi
 80490d4:	89 d9                	mov    %ebx,%ecx
 80490d6:	8b 50 04             	mov    0x4(%eax),%edx
 80490d9:	89 51 08             	mov    %edx,0x8(%ecx)
 80490dc:	83 c0 04             	add    $0x4,%eax
 80490df:	89 d1                	mov    %edx,%ecx
 80490e1:	39 c6                	cmp    %eax,%esi
 80490e3:	75 f1                	jne    80490d6 <phase_8+0xb7>
 80490e5:	c7 42 08 00 00 00 00 	movl   $0x0,0x8(%edx)
 80490ec:	be 05 00 00 00       	mov    $0x5,%esi
 80490f1:	8b 43 08             	mov    0x8(%ebx),%eax
 80490f4:	8b 00                	mov    (%eax),%eax
 80490f6:	39 03                	cmp    %eax,(%ebx)
 80490f8:	7d 05                	jge    80490ff <phase_8+0xe0>
 80490fa:	e8 08 04 00 00       	call   8049507 <explode_bomb>
 80490ff:	8b 5b 08             	mov    0x8(%ebx),%ebx
 8049102:	83 ee 01             	sub    $0x1,%esi
 8049105:	75 ea                	jne    80490f1 <phase_8+0xd2>
 8049107:	8b 44 24 3c          	mov    0x3c(%esp),%eax
 804910b:	65 33 05 14 00 00 00 	xor    %gs:0x14,%eax
 8049112:	74 05                	je     8049119 <phase_8+0xfa>
 8049114:	e8 e7 f6 ff ff       	call   8048800 <__stack_chk_fail@plt>
 8049119:	83 c4 44             	add    $0x44,%esp
 804911c:	5b                   	pop    %ebx
 804911d:	5e                   	pop    %esi
 804911e:	c3                   	ret    

0804911f <fun9>:
 804911f:	53                   	push   %ebx
 8049120:	83 ec 08             	sub    $0x8,%esp
 8049123:	8b 54 24 10          	mov    0x10(%esp),%edx
 8049127:	8b 4c 24 14          	mov    0x14(%esp),%ecx
 804912b:	85 d2                	test   %edx,%edx
 804912d:	74 37                	je     8049166 <fun9+0x47>
 804912f:	8b 1a                	mov    (%edx),%ebx
 8049131:	39 cb                	cmp    %ecx,%ebx
 8049133:	7e 13                	jle    8049148 <fun9+0x29>
 8049135:	83 ec 08             	sub    $0x8,%esp
 8049138:	51                   	push   %ecx
 8049139:	ff 72 04             	pushl  0x4(%edx)
 804913c:	e8 de ff ff ff       	call   804911f <fun9>
 8049141:	83 c4 10             	add    $0x10,%esp
 8049144:	01 c0                	add    %eax,%eax
 8049146:	eb 23                	jmp    804916b <fun9+0x4c>
 8049148:	b8 00 00 00 00       	mov    $0x0,%eax
 804914d:	39 cb                	cmp    %ecx,%ebx
 804914f:	74 1a                	je     804916b <fun9+0x4c>
 8049151:	83 ec 08             	sub    $0x8,%esp
 8049154:	51                   	push   %ecx
 8049155:	ff 72 08             	pushl  0x8(%edx)
 8049158:	e8 c2 ff ff ff       	call   804911f <fun9>
 804915d:	83 c4 10             	add    $0x10,%esp
 8049160:	8d 44 00 01          	lea    0x1(%eax,%eax,1),%eax
 8049164:	eb 05                	jmp    804916b <fun9+0x4c>
 8049166:	b8 ff ff ff ff       	mov    $0xffffffff,%eax
 804916b:	83 c4 08             	add    $0x8,%esp
 804916e:	5b                   	pop    %ebx
 804916f:	c3                   	ret    

08049170 <phase_9>:
 8049170:	53                   	push   %ebx
 8049171:	83 ec 0c             	sub    $0xc,%esp
 8049174:	6a 0a                	push   $0xa
 8049176:	6a 00                	push   $0x0
 8049178:	ff 74 24 1c          	pushl  0x1c(%esp)
 804917c:	e8 9f f7 ff ff       	call   8048920 <strtol@plt>
 8049181:	89 c3                	mov    %eax,%ebx
 8049183:	8d 40 ff             	lea    -0x1(%eax),%eax
 8049186:	83 c4 10             	add    $0x10,%esp
 8049189:	3d ec 03 00 00       	cmp    $0x3ec,%eax
 804918e:	76 05                	jbe    8049195 <phase_9+0x25>
 8049190:	e8 72 03 00 00       	call   8049507 <explode_bomb>
 8049195:	83 ec 08             	sub    $0x8,%esp
 8049198:	53                   	push   %ebx
 8049199:	68 a0 d0 04 08       	push   $0x804d0a0
 804919e:	e8 7c ff ff ff       	call   804911f <fun9>
 80491a3:	83 c4 10             	add    $0x10,%esp
 80491a6:	83 f8 06             	cmp    $0x6,%eax
 80491a9:	74 05                	je     80491b0 <phase_9+0x40>
 80491ab:	e8 57 03 00 00       	call   8049507 <explode_bomb>
 80491b0:	83 c4 08             	add    $0x8,%esp
 80491b3:	5b                   	pop    %ebx
 80491b4:	c3                   	ret    

080491b5 <sig_handler>:
 80491b5:	83 ec 18             	sub    $0x18,%esp
 80491b8:	68 e0 a4 04 08       	push   $0x804a4e0
 80491bd:	e8 8e f6 ff ff       	call   8048850 <puts@plt>
 80491c2:	c7 04 24 03 00 00 00 	movl   $0x3,(%esp)
 80491c9:	e8 12 f6 ff ff       	call   80487e0 <sleep@plt>
 80491ce:	83 c4 08             	add    $0x8,%esp
 80491d1:	68 3d a6 04 08       	push   $0x804a63d
 80491d6:	6a 01                	push   $0x1
 80491d8:	e8 03 f7 ff ff       	call   80488e0 <__printf_chk@plt>
 80491dd:	83 c4 04             	add    $0x4,%esp
 80491e0:	ff 35 e4 d7 04 08    	pushl  0x804d7e4
 80491e6:	e8 c5 f5 ff ff       	call   80487b0 <fflush@plt>
 80491eb:	c7 04 24 01 00 00 00 	movl   $0x1,(%esp)
 80491f2:	e8 e9 f5 ff ff       	call   80487e0 <sleep@plt>
 80491f7:	c7 04 24 45 a6 04 08 	movl   $0x804a645,(%esp)
 80491fe:	e8 4d f6 ff ff       	call   8048850 <puts@plt>
 8049203:	c7 04 24 10 00 00 00 	movl   $0x10,(%esp)
 804920a:	e8 61 f6 ff ff       	call   8048870 <exit@plt>

0804920f <invalid_phase>:
 804920f:	83 ec 10             	sub    $0x10,%esp
 8049212:	ff 74 24 14          	pushl  0x14(%esp)
 8049216:	68 4d a6 04 08       	push   $0x804a64d
 804921b:	6a 01                	push   $0x1
 804921d:	e8 be f6 ff ff       	call   80488e0 <__printf_chk@plt>
 8049222:	c7 04 24 08 00 00 00 	movl   $0x8,(%esp)
 8049229:	e8 42 f6 ff ff       	call   8048870 <exit@plt>

0804922e <string_length>:
 804922e:	8b 54 24 04          	mov    0x4(%esp),%edx
 8049232:	80 3a 00             	cmpb   $0x0,(%edx)
 8049235:	74 10                	je     8049247 <string_length+0x19>
 8049237:	b8 00 00 00 00       	mov    $0x0,%eax
 804923c:	83 c0 01             	add    $0x1,%eax
 804923f:	80 3c 02 00          	cmpb   $0x0,(%edx,%eax,1)
 8049243:	75 f7                	jne    804923c <string_length+0xe>
 8049245:	f3 c3                	repz ret 
 8049247:	b8 00 00 00 00       	mov    $0x0,%eax
 804924c:	c3                   	ret    

0804924d <strings_not_equal>:
 804924d:	57                   	push   %edi
 804924e:	56                   	push   %esi
 804924f:	53                   	push   %ebx
 8049250:	8b 5c 24 10          	mov    0x10(%esp),%ebx
 8049254:	8b 74 24 14          	mov    0x14(%esp),%esi
 8049258:	53                   	push   %ebx
 8049259:	e8 d0 ff ff ff       	call   804922e <string_length>
 804925e:	89 c7                	mov    %eax,%edi
 8049260:	89 34 24             	mov    %esi,(%esp)
 8049263:	e8 c6 ff ff ff       	call   804922e <string_length>
 8049268:	83 c4 04             	add    $0x4,%esp
 804926b:	ba 01 00 00 00       	mov    $0x1,%edx
 8049270:	39 c7                	cmp    %eax,%edi
 8049272:	75 38                	jne    80492ac <strings_not_equal+0x5f>
 8049274:	0f b6 03             	movzbl (%ebx),%eax
 8049277:	84 c0                	test   %al,%al
 8049279:	74 1e                	je     8049299 <strings_not_equal+0x4c>
 804927b:	3a 06                	cmp    (%esi),%al
 804927d:	74 06                	je     8049285 <strings_not_equal+0x38>
 804927f:	eb 1f                	jmp    80492a0 <strings_not_equal+0x53>
 8049281:	3a 06                	cmp    (%esi),%al
 8049283:	75 22                	jne    80492a7 <strings_not_equal+0x5a>
 8049285:	83 c3 01             	add    $0x1,%ebx
 8049288:	83 c6 01             	add    $0x1,%esi
 804928b:	0f b6 03             	movzbl (%ebx),%eax
 804928e:	84 c0                	test   %al,%al
 8049290:	75 ef                	jne    8049281 <strings_not_equal+0x34>
 8049292:	ba 00 00 00 00       	mov    $0x0,%edx
 8049297:	eb 13                	jmp    80492ac <strings_not_equal+0x5f>
 8049299:	ba 00 00 00 00       	mov    $0x0,%edx
 804929e:	eb 0c                	jmp    80492ac <strings_not_equal+0x5f>
 80492a0:	ba 01 00 00 00       	mov    $0x1,%edx
 80492a5:	eb 05                	jmp    80492ac <strings_not_equal+0x5f>
 80492a7:	ba 01 00 00 00       	mov    $0x1,%edx
 80492ac:	89 d0                	mov    %edx,%eax
 80492ae:	5b                   	pop    %ebx
 80492af:	5e                   	pop    %esi
 80492b0:	5f                   	pop    %edi
 80492b1:	c3                   	ret    

080492b2 <initialize_bomb>:
 80492b2:	56                   	push   %esi
 80492b3:	53                   	push   %ebx
 80492b4:	81 ec 5c 20 00 00    	sub    $0x205c,%esp
 80492ba:	65 a1 14 00 00 00    	mov    %gs:0x14,%eax
 80492c0:	89 84 24 54 20 00 00 	mov    %eax,0x2054(%esp)
 80492c7:	31 c0                	xor    %eax,%eax
 80492c9:	68 b5 91 04 08       	push   $0x80491b5
 80492ce:	6a 02                	push   $0x2
 80492d0:	e8 fb f4 ff ff       	call   80487d0 <signal@plt>
 80492d5:	83 c4 08             	add    $0x8,%esp
 80492d8:	6a 40                	push   $0x40
 80492da:	8d 44 24 18          	lea    0x18(%esp),%eax
 80492de:	50                   	push   %eax
 80492df:	e8 3c f5 ff ff       	call   8048820 <gethostname@plt>
 80492e4:	83 c4 10             	add    $0x10,%esp
 80492e7:	85 c0                	test   %eax,%eax
 80492e9:	75 14                	jne    80492ff <initialize_bomb+0x4d>
 80492eb:	a1 c0 d5 04 08       	mov    0x804d5c0,%eax
 80492f0:	bb c4 d5 04 08       	mov    $0x804d5c4,%ebx
 80492f5:	8d 74 24 0c          	lea    0xc(%esp),%esi
 80492f9:	85 c0                	test   %eax,%eax
 80492fb:	75 1b                	jne    8049318 <initialize_bomb+0x66>
 80492fd:	eb 56                	jmp    8049355 <initialize_bomb+0xa3>
 80492ff:	83 ec 0c             	sub    $0xc,%esp
 8049302:	68 18 a5 04 08       	push   $0x804a518
 8049307:	e8 44 f5 ff ff       	call   8048850 <puts@plt>
 804930c:	c7 04 24 08 00 00 00 	movl   $0x8,(%esp)
 8049313:	e8 58 f5 ff ff       	call   8048870 <exit@plt>
 8049318:	83 ec 08             	sub    $0x8,%esp
 804931b:	56                   	push   %esi
 804931c:	50                   	push   %eax
 804931d:	e8 7e f5 ff ff       	call   80488a0 <strcasecmp@plt>
 8049322:	83 c4 10             	add    $0x10,%esp
 8049325:	85 c0                	test   %eax,%eax
 8049327:	74 45                	je     804936e <initialize_bomb+0xbc>
 8049329:	83 c3 04             	add    $0x4,%ebx
 804932c:	8b 43 fc             	mov    -0x4(%ebx),%eax
 804932f:	85 c0                	test   %eax,%eax
 8049331:	75 e5                	jne    8049318 <initialize_bomb+0x66>
 8049333:	eb 20                	jmp    8049355 <initialize_bomb+0xa3>
 8049335:	83 ec 04             	sub    $0x4,%esp
 8049338:	8d 44 24 50          	lea    0x50(%esp),%eax
 804933c:	50                   	push   %eax
 804933d:	68 5e a6 04 08       	push   $0x804a65e
 8049342:	6a 01                	push   $0x1
 8049344:	e8 97 f5 ff ff       	call   80488e0 <__printf_chk@plt>
 8049349:	c7 04 24 08 00 00 00 	movl   $0x8,(%esp)
 8049350:	e8 1b f5 ff ff       	call   8048870 <exit@plt>
 8049355:	83 ec 0c             	sub    $0xc,%esp
 8049358:	68 50 a5 04 08       	push   $0x804a550
 804935d:	e8 ee f4 ff ff       	call   8048850 <puts@plt>
 8049362:	c7 04 24 08 00 00 00 	movl   $0x8,(%esp)
 8049369:	e8 02 f5 ff ff       	call   8048870 <exit@plt>
 804936e:	83 ec 0c             	sub    $0xc,%esp
 8049371:	8d 44 24 58          	lea    0x58(%esp),%eax
 8049375:	50                   	push   %eax
 8049376:	e8 29 0c 00 00       	call   8049fa4 <init_driver>
 804937b:	83 c4 10             	add    $0x10,%esp
 804937e:	85 c0                	test   %eax,%eax
 8049380:	78 b3                	js     8049335 <initialize_bomb+0x83>
 8049382:	8b 84 24 4c 20 00 00 	mov    0x204c(%esp),%eax
 8049389:	65 33 05 14 00 00 00 	xor    %gs:0x14,%eax
 8049390:	74 05                	je     8049397 <initialize_bomb+0xe5>
 8049392:	e8 69 f4 ff ff       	call   8048800 <__stack_chk_fail@plt>
 8049397:	81 c4 54 20 00 00    	add    $0x2054,%esp
 804939d:	5b                   	pop    %ebx
 804939e:	5e                   	pop    %esi
 804939f:	c3                   	ret    

080493a0 <initialize_bomb_solve>:
 80493a0:	f3 c3                	repz ret 

080493a2 <blank_line>:
 80493a2:	56                   	push   %esi
 80493a3:	53                   	push   %ebx
 80493a4:	83 ec 04             	sub    $0x4,%esp
 80493a7:	8b 74 24 10          	mov    0x10(%esp),%esi
 80493ab:	eb 14                	jmp    80493c1 <blank_line+0x1f>
 80493ad:	e8 9e f5 ff ff       	call   8048950 <__ctype_b_loc@plt>
 80493b2:	83 c6 01             	add    $0x1,%esi
 80493b5:	0f be db             	movsbl %bl,%ebx
 80493b8:	8b 00                	mov    (%eax),%eax
 80493ba:	f6 44 58 01 20       	testb  $0x20,0x1(%eax,%ebx,2)
 80493bf:	74 0e                	je     80493cf <blank_line+0x2d>
 80493c1:	0f b6 1e             	movzbl (%esi),%ebx
 80493c4:	84 db                	test   %bl,%bl
 80493c6:	75 e5                	jne    80493ad <blank_line+0xb>
 80493c8:	b8 01 00 00 00       	mov    $0x1,%eax
 80493cd:	eb 05                	jmp    80493d4 <blank_line+0x32>
 80493cf:	b8 00 00 00 00       	mov    $0x0,%eax
 80493d4:	83 c4 04             	add    $0x4,%esp
 80493d7:	5b                   	pop    %ebx
 80493d8:	5e                   	pop    %esi
 80493d9:	c3                   	ret    

080493da <skip>:
 80493da:	53                   	push   %ebx
 80493db:	83 ec 08             	sub    $0x8,%esp
 80493de:	83 ec 04             	sub    $0x4,%esp
 80493e1:	ff 35 f0 d7 04 08    	pushl  0x804d7f0
 80493e7:	6a 50                	push   $0x50
 80493e9:	a1 ec d7 04 08       	mov    0x804d7ec,%eax
 80493ee:	8d 04 80             	lea    (%eax,%eax,4),%eax
 80493f1:	c1 e0 04             	shl    $0x4,%eax
 80493f4:	05 00 d8 04 08       	add    $0x804d800,%eax
 80493f9:	50                   	push   %eax
 80493fa:	e8 c1 f3 ff ff       	call   80487c0 <fgets@plt>
 80493ff:	89 c3                	mov    %eax,%ebx
 8049401:	83 c4 10             	add    $0x10,%esp
 8049404:	85 c0                	test   %eax,%eax
 8049406:	74 10                	je     8049418 <skip+0x3e>
 8049408:	83 ec 0c             	sub    $0xc,%esp
 804940b:	50                   	push   %eax
 804940c:	e8 91 ff ff ff       	call   80493a2 <blank_line>
 8049411:	83 c4 10             	add    $0x10,%esp
 8049414:	85 c0                	test   %eax,%eax
 8049416:	75 c6                	jne    80493de <skip+0x4>
 8049418:	89 d8                	mov    %ebx,%eax
 804941a:	83 c4 08             	add    $0x8,%esp
 804941d:	5b                   	pop    %ebx
 804941e:	c3                   	ret    

0804941f <send_msg>:
 804941f:	57                   	push   %edi
 8049420:	53                   	push   %ebx
 8049421:	81 ec 14 40 00 00    	sub    $0x4014,%esp
 8049427:	65 a1 14 00 00 00    	mov    %gs:0x14,%eax
 804942d:	89 84 24 0c 40 00 00 	mov    %eax,0x400c(%esp)
 8049434:	31 c0                	xor    %eax,%eax
 8049436:	8b 1d ec d7 04 08    	mov    0x804d7ec,%ebx
 804943c:	8d 54 9b fb          	lea    -0x5(%ebx,%ebx,4),%edx
 8049440:	c1 e2 04             	shl    $0x4,%edx
 8049443:	81 c2 00 d8 04 08    	add    $0x804d800,%edx
 8049449:	b9 ff ff ff ff       	mov    $0xffffffff,%ecx
 804944e:	89 d7                	mov    %edx,%edi
 8049450:	f2 ae                	repnz scas %es:(%edi),%al
 8049452:	f7 d1                	not    %ecx
 8049454:	83 c1 63             	add    $0x63,%ecx
 8049457:	81 f9 00 20 00 00    	cmp    $0x2000,%ecx
 804945d:	76 1b                	jbe    804947a <send_msg+0x5b>
 804945f:	83 ec 08             	sub    $0x8,%esp
 8049462:	68 88 a5 04 08       	push   $0x804a588
 8049467:	6a 01                	push   $0x1
 8049469:	e8 72 f4 ff ff       	call   80488e0 <__printf_chk@plt>
 804946e:	c7 04 24 08 00 00 00 	movl   $0x8,(%esp)
 8049475:	e8 f6 f3 ff ff       	call   8048870 <exit@plt>
 804947a:	83 bc 24 20 40 00 00 	cmpl   $0x0,0x4020(%esp)
 8049481:	00 
 8049482:	b9 80 a6 04 08       	mov    $0x804a680,%ecx
 8049487:	b8 78 a6 04 08       	mov    $0x804a678,%eax
 804948c:	0f 44 c1             	cmove  %ecx,%eax
 804948f:	52                   	push   %edx
 8049490:	53                   	push   %ebx
 8049491:	50                   	push   %eax
 8049492:	ff 35 a0 d5 04 08    	pushl  0x804d5a0
 8049498:	68 89 a6 04 08       	push   $0x804a689
 804949d:	68 00 20 00 00       	push   $0x2000
 80494a2:	6a 01                	push   $0x1
 80494a4:	8d 5c 24 28          	lea    0x28(%esp),%ebx
 80494a8:	53                   	push   %ebx
 80494a9:	e8 b2 f4 ff ff       	call   8048960 <__sprintf_chk@plt>
 80494ae:	83 c4 20             	add    $0x20,%esp
 80494b1:	8d 84 24 0c 20 00 00 	lea    0x200c(%esp),%eax
 80494b8:	50                   	push   %eax
 80494b9:	6a 00                	push   $0x0
 80494bb:	53                   	push   %ebx
 80494bc:	68 a0 d1 04 08       	push   $0x804d1a0
 80494c1:	e8 b0 0c 00 00       	call   804a176 <driver_post>
 80494c6:	83 c4 10             	add    $0x10,%esp
 80494c9:	85 c0                	test   %eax,%eax
 80494cb:	79 1c                	jns    80494e9 <send_msg+0xca>
 80494cd:	83 ec 0c             	sub    $0xc,%esp
 80494d0:	8d 84 24 18 20 00 00 	lea    0x2018(%esp),%eax
 80494d7:	50                   	push   %eax
 80494d8:	e8 73 f3 ff ff       	call   8048850 <puts@plt>
 80494dd:	c7 04 24 00 00 00 00 	movl   $0x0,(%esp)
 80494e4:	e8 87 f3 ff ff       	call   8048870 <exit@plt>
 80494e9:	8b 84 24 0c 40 00 00 	mov    0x400c(%esp),%eax
 80494f0:	65 33 05 14 00 00 00 	xor    %gs:0x14,%eax
 80494f7:	74 05                	je     80494fe <send_msg+0xdf>
 80494f9:	e8 02 f3 ff ff       	call   8048800 <__stack_chk_fail@plt>
 80494fe:	81 c4 14 40 00 00    	add    $0x4014,%esp
 8049504:	5b                   	pop    %ebx
 8049505:	5f                   	pop    %edi
 8049506:	c3                   	ret    

08049507 <explode_bomb>:
 8049507:	83 ec 18             	sub    $0x18,%esp
 804950a:	68 95 a6 04 08       	push   $0x804a695
 804950f:	e8 3c f3 ff ff       	call   8048850 <puts@plt>
 8049514:	c7 04 24 9e a6 04 08 	movl   $0x804a69e,(%esp)
 804951b:	e8 30 f3 ff ff       	call   8048850 <puts@plt>
 8049520:	c7 04 24 00 00 00 00 	movl   $0x0,(%esp)
 8049527:	e8 f3 fe ff ff       	call   804941f <send_msg>
 804952c:	c7 04 24 ac a5 04 08 	movl   $0x804a5ac,(%esp)
 8049533:	e8 18 f3 ff ff       	call   8048850 <puts@plt>
 8049538:	c7 04 24 08 00 00 00 	movl   $0x8,(%esp)
 804953f:	e8 2c f3 ff ff       	call   8048870 <exit@plt>

08049544 <read_six_numbers>:
 8049544:	83 ec 0c             	sub    $0xc,%esp
 8049547:	8b 44 24 14          	mov    0x14(%esp),%eax
 804954b:	8d 50 14             	lea    0x14(%eax),%edx
 804954e:	52                   	push   %edx
 804954f:	8d 50 10             	lea    0x10(%eax),%edx
 8049552:	52                   	push   %edx
 8049553:	8d 50 0c             	lea    0xc(%eax),%edx
 8049556:	52                   	push   %edx
 8049557:	8d 50 08             	lea    0x8(%eax),%edx
 804955a:	52                   	push   %edx
 804955b:	8d 50 04             	lea    0x4(%eax),%edx
 804955e:	52                   	push   %edx
 804955f:	50                   	push   %eax
 8049560:	68 b5 a6 04 08       	push   $0x804a6b5
 8049565:	ff 74 24 2c          	pushl  0x2c(%esp)
 8049569:	e8 42 f3 ff ff       	call   80488b0 <__isoc99_sscanf@plt>
 804956e:	83 c4 20             	add    $0x20,%esp
 8049571:	83 f8 05             	cmp    $0x5,%eax
 8049574:	7f 05                	jg     804957b <read_six_numbers+0x37>
 8049576:	e8 8c ff ff ff       	call   8049507 <explode_bomb>
 804957b:	83 c4 0c             	add    $0xc,%esp
 804957e:	c3                   	ret    

0804957f <read_line>:
 804957f:	57                   	push   %edi
 8049580:	56                   	push   %esi
 8049581:	53                   	push   %ebx
 8049582:	e8 53 fe ff ff       	call   80493da <skip>
 8049587:	85 c0                	test   %eax,%eax
 8049589:	75 70                	jne    80495fb <read_line+0x7c>
 804958b:	a1 e0 d7 04 08       	mov    0x804d7e0,%eax
 8049590:	39 05 f0 d7 04 08    	cmp    %eax,0x804d7f0
 8049596:	75 19                	jne    80495b1 <read_line+0x32>
 8049598:	83 ec 0c             	sub    $0xc,%esp
 804959b:	68 c7 a6 04 08       	push   $0x804a6c7
 80495a0:	e8 ab f2 ff ff       	call   8048850 <puts@plt>
 80495a5:	c7 04 24 08 00 00 00 	movl   $0x8,(%esp)
 80495ac:	e8 bf f2 ff ff       	call   8048870 <exit@plt>
 80495b1:	83 ec 0c             	sub    $0xc,%esp
 80495b4:	68 e5 a6 04 08       	push   $0x804a6e5
 80495b9:	e8 72 f2 ff ff       	call   8048830 <getenv@plt>
 80495be:	83 c4 10             	add    $0x10,%esp
 80495c1:	85 c0                	test   %eax,%eax
 80495c3:	74 0a                	je     80495cf <read_line+0x50>
 80495c5:	83 ec 0c             	sub    $0xc,%esp
 80495c8:	6a 00                	push   $0x0
 80495ca:	e8 a1 f2 ff ff       	call   8048870 <exit@plt>
 80495cf:	a1 e0 d7 04 08       	mov    0x804d7e0,%eax
 80495d4:	a3 f0 d7 04 08       	mov    %eax,0x804d7f0
 80495d9:	e8 fc fd ff ff       	call   80493da <skip>
 80495de:	85 c0                	test   %eax,%eax
 80495e0:	75 19                	jne    80495fb <read_line+0x7c>
 80495e2:	83 ec 0c             	sub    $0xc,%esp
 80495e5:	68 c7 a6 04 08       	push   $0x804a6c7
 80495ea:	e8 61 f2 ff ff       	call   8048850 <puts@plt>
 80495ef:	c7 04 24 00 00 00 00 	movl   $0x0,(%esp)
 80495f6:	e8 75 f2 ff ff       	call   8048870 <exit@plt>
 80495fb:	8b 15 ec d7 04 08    	mov    0x804d7ec,%edx
 8049601:	8d 1c 92             	lea    (%edx,%edx,4),%ebx
 8049604:	c1 e3 04             	shl    $0x4,%ebx
 8049607:	81 c3 00 d8 04 08    	add    $0x804d800,%ebx
 804960d:	b8 00 00 00 00       	mov    $0x0,%eax
 8049612:	b9 ff ff ff ff       	mov    $0xffffffff,%ecx
 8049617:	89 df                	mov    %ebx,%edi
 8049619:	f2 ae                	repnz scas %es:(%edi),%al
 804961b:	f7 d1                	not    %ecx
 804961d:	83 e9 01             	sub    $0x1,%ecx
 8049620:	83 f9 4e             	cmp    $0x4e,%ecx
 8049623:	7e 36                	jle    804965b <read_line+0xdc>
 8049625:	83 ec 0c             	sub    $0xc,%esp
 8049628:	68 f0 a6 04 08       	push   $0x804a6f0
 804962d:	e8 1e f2 ff ff       	call   8048850 <puts@plt>
 8049632:	a1 ec d7 04 08       	mov    0x804d7ec,%eax
 8049637:	8d 50 01             	lea    0x1(%eax),%edx
 804963a:	89 15 ec d7 04 08    	mov    %edx,0x804d7ec
 8049640:	6b c0 50             	imul   $0x50,%eax,%eax
 8049643:	05 00 d8 04 08       	add    $0x804d800,%eax
 8049648:	be 0b a7 04 08       	mov    $0x804a70b,%esi
 804964d:	b9 04 00 00 00       	mov    $0x4,%ecx
 8049652:	89 c7                	mov    %eax,%edi
 8049654:	f3 a5                	rep movsl %ds:(%esi),%es:(%edi)
 8049656:	e8 ac fe ff ff       	call   8049507 <explode_bomb>
 804965b:	8d 04 92             	lea    (%edx,%edx,4),%eax
 804965e:	c1 e0 04             	shl    $0x4,%eax
 8049661:	c6 84 01 ff d7 04 08 	movb   $0x0,0x804d7ff(%ecx,%eax,1)
 8049668:	00 
 8049669:	83 c2 01             	add    $0x1,%edx
 804966c:	89 15 ec d7 04 08    	mov    %edx,0x804d7ec
 8049672:	89 d8                	mov    %ebx,%eax
 8049674:	5b                   	pop    %ebx
 8049675:	5e                   	pop    %esi
 8049676:	5f                   	pop    %edi
 8049677:	c3                   	ret    

08049678 <phase_defused>:
 8049678:	83 ec 18             	sub    $0x18,%esp
 804967b:	6a 01                	push   $0x1
 804967d:	e8 9d fd ff ff       	call   804941f <send_msg>
 8049682:	83 c4 10             	add    $0x10,%esp
 8049685:	83 3d ec d7 04 08 09 	cmpl   $0x9,0x804d7ec
 804968c:	75 1c                	jne    80496aa <phase_defused+0x32>
 804968e:	83 ec 0c             	sub    $0xc,%esp
 8049691:	68 d0 a5 04 08       	push   $0x804a5d0
 8049696:	e8 b5 f1 ff ff       	call   8048850 <puts@plt>
 804969b:	c7 04 24 fc a5 04 08 	movl   $0x804a5fc,(%esp)
 80496a2:	e8 a9 f1 ff ff       	call   8048850 <puts@plt>
 80496a7:	83 c4 10             	add    $0x10,%esp
 80496aa:	83 c4 0c             	add    $0xc,%esp
 80496ad:	c3                   	ret    

080496ae <sigalrm_handler>:
 80496ae:	83 ec 0c             	sub    $0xc,%esp
 80496b1:	6a 00                	push   $0x0
 80496b3:	68 04 ab 04 08       	push   $0x804ab04
 80496b8:	6a 01                	push   $0x1
 80496ba:	ff 35 c0 d7 04 08    	pushl  0x804d7c0
 80496c0:	e8 3b f2 ff ff       	call   8048900 <__fprintf_chk@plt>
 80496c5:	c7 04 24 01 00 00 00 	movl   $0x1,(%esp)
 80496cc:	e8 9f f1 ff ff       	call   8048870 <exit@plt>

080496d1 <rio_readlineb>:
 80496d1:	55                   	push   %ebp
 80496d2:	57                   	push   %edi
 80496d3:	56                   	push   %esi
 80496d4:	53                   	push   %ebx
 80496d5:	83 ec 2c             	sub    $0x2c,%esp
 80496d8:	89 d7                	mov    %edx,%edi
 80496da:	89 4c 24 0c          	mov    %ecx,0xc(%esp)
 80496de:	65 8b 15 14 00 00 00 	mov    %gs:0x14,%edx
 80496e5:	89 54 24 1c          	mov    %edx,0x1c(%esp)
 80496e9:	31 d2                	xor    %edx,%edx
 80496eb:	83 f9 01             	cmp    $0x1,%ecx
 80496ee:	76 79                	jbe    8049769 <rio_readlineb+0x98>
 80496f0:	89 c3                	mov    %eax,%ebx
 80496f2:	89 4c 24 08          	mov    %ecx,0x8(%esp)
 80496f6:	bd 01 00 00 00       	mov    $0x1,%ebp
 80496fb:	8d 73 0c             	lea    0xc(%ebx),%esi
 80496fe:	eb 2d                	jmp    804972d <rio_readlineb+0x5c>
 8049700:	83 ec 04             	sub    $0x4,%esp
 8049703:	68 00 20 00 00       	push   $0x2000
 8049708:	56                   	push   %esi
 8049709:	ff 33                	pushl  (%ebx)
 804970b:	e8 90 f0 ff ff       	call   80487a0 <read@plt>
 8049710:	89 43 04             	mov    %eax,0x4(%ebx)
 8049713:	83 c4 10             	add    $0x10,%esp
 8049716:	85 c0                	test   %eax,%eax
 8049718:	79 0c                	jns    8049726 <rio_readlineb+0x55>
 804971a:	e8 b1 f1 ff ff       	call   80488d0 <__errno_location@plt>
 804971f:	83 38 04             	cmpl   $0x4,(%eax)
 8049722:	74 09                	je     804972d <rio_readlineb+0x5c>
 8049724:	eb 62                	jmp    8049788 <rio_readlineb+0xb7>
 8049726:	85 c0                	test   %eax,%eax
 8049728:	74 63                	je     804978d <rio_readlineb+0xbc>
 804972a:	89 73 08             	mov    %esi,0x8(%ebx)
 804972d:	8b 43 04             	mov    0x4(%ebx),%eax
 8049730:	85 c0                	test   %eax,%eax
 8049732:	7e cc                	jle    8049700 <rio_readlineb+0x2f>
 8049734:	8b 4b 08             	mov    0x8(%ebx),%ecx
 8049737:	0f b6 11             	movzbl (%ecx),%edx
 804973a:	88 54 24 1b          	mov    %dl,0x1b(%esp)
 804973e:	83 c1 01             	add    $0x1,%ecx
 8049741:	89 4b 08             	mov    %ecx,0x8(%ebx)
 8049744:	83 e8 01             	sub    $0x1,%eax
 8049747:	89 43 04             	mov    %eax,0x4(%ebx)
 804974a:	83 c7 01             	add    $0x1,%edi
 804974d:	88 57 ff             	mov    %dl,-0x1(%edi)
 8049750:	80 fa 0a             	cmp    $0xa,%dl
 8049753:	75 09                	jne    804975e <rio_readlineb+0x8d>
 8049755:	eb 1d                	jmp    8049774 <rio_readlineb+0xa3>
 8049757:	83 fd 01             	cmp    $0x1,%ebp
 804975a:	75 18                	jne    8049774 <rio_readlineb+0xa3>
 804975c:	eb 1b                	jmp    8049779 <rio_readlineb+0xa8>
 804975e:	83 c5 01             	add    $0x1,%ebp
 8049761:	3b 6c 24 08          	cmp    0x8(%esp),%ebp
 8049765:	74 09                	je     8049770 <rio_readlineb+0x9f>
 8049767:	eb c4                	jmp    804972d <rio_readlineb+0x5c>
 8049769:	bd 01 00 00 00       	mov    $0x1,%ebp
 804976e:	eb 04                	jmp    8049774 <rio_readlineb+0xa3>
 8049770:	8b 6c 24 0c          	mov    0xc(%esp),%ebp
 8049774:	c6 07 00             	movb   $0x0,(%edi)
 8049777:	89 e8                	mov    %ebp,%eax
 8049779:	8b 54 24 1c          	mov    0x1c(%esp),%edx
 804977d:	65 33 15 14 00 00 00 	xor    %gs:0x14,%edx
 8049784:	74 17                	je     804979d <rio_readlineb+0xcc>
 8049786:	eb 10                	jmp    8049798 <rio_readlineb+0xc7>
 8049788:	b8 ff ff ff ff       	mov    $0xffffffff,%eax
 804978d:	85 c0                	test   %eax,%eax
 804978f:	74 c6                	je     8049757 <rio_readlineb+0x86>
 8049791:	b8 ff ff ff ff       	mov    $0xffffffff,%eax
 8049796:	eb e1                	jmp    8049779 <rio_readlineb+0xa8>
 8049798:	e8 63 f0 ff ff       	call   8048800 <__stack_chk_fail@plt>
 804979d:	83 c4 2c             	add    $0x2c,%esp
 80497a0:	5b                   	pop    %ebx
 80497a1:	5e                   	pop    %esi
 80497a2:	5f                   	pop    %edi
 80497a3:	5d                   	pop    %ebp
 80497a4:	c3                   	ret    

080497a5 <submitr>:
 80497a5:	55                   	push   %ebp
 80497a6:	57                   	push   %edi
 80497a7:	56                   	push   %esi
 80497a8:	53                   	push   %ebx
 80497a9:	81 ec 60 a0 00 00    	sub    $0xa060,%esp
 80497af:	8b b4 24 74 a0 00 00 	mov    0xa074(%esp),%esi
 80497b6:	8b 84 24 7c a0 00 00 	mov    0xa07c(%esp),%eax
 80497bd:	89 44 24 10          	mov    %eax,0x10(%esp)
 80497c1:	8b 84 24 80 a0 00 00 	mov    0xa080(%esp),%eax
 80497c8:	89 44 24 14          	mov    %eax,0x14(%esp)
 80497cc:	8b 84 24 84 a0 00 00 	mov    0xa084(%esp),%eax
 80497d3:	89 44 24 18          	mov    %eax,0x18(%esp)
 80497d7:	8b 9c 24 88 a0 00 00 	mov    0xa088(%esp),%ebx
 80497de:	8b 84 24 8c a0 00 00 	mov    0xa08c(%esp),%eax
 80497e5:	89 44 24 1c          	mov    %eax,0x1c(%esp)
 80497e9:	65 a1 14 00 00 00    	mov    %gs:0x14,%eax
 80497ef:	89 84 24 50 a0 00 00 	mov    %eax,0xa050(%esp)
 80497f6:	31 c0                	xor    %eax,%eax
 80497f8:	c7 44 24 30 00 00 00 	movl   $0x0,0x30(%esp)
 80497ff:	00 
 8049800:	6a 00                	push   $0x0
 8049802:	6a 01                	push   $0x1
 8049804:	6a 02                	push   $0x2
 8049806:	e8 e5 f0 ff ff       	call   80488f0 <socket@plt>
 804980b:	89 44 24 18          	mov    %eax,0x18(%esp)
 804980f:	83 c4 10             	add    $0x10,%esp
 8049812:	85 c0                	test   %eax,%eax
 8049814:	79 52                	jns    8049868 <submitr+0xc3>
 8049816:	8b 44 24 18          	mov    0x18(%esp),%eax
 804981a:	c7 00 45 72 72 6f    	movl   $0x6f727245,(%eax)
 8049820:	c7 40 04 72 3a 20 43 	movl   $0x43203a72,0x4(%eax)
 8049827:	c7 40 08 6c 69 65 6e 	movl   $0x6e65696c,0x8(%eax)
 804982e:	c7 40 0c 74 20 75 6e 	movl   $0x6e752074,0xc(%eax)
 8049835:	c7 40 10 61 62 6c 65 	movl   $0x656c6261,0x10(%eax)
 804983c:	c7 40 14 20 74 6f 20 	movl   $0x206f7420,0x14(%eax)
 8049843:	c7 40 18 63 72 65 61 	movl   $0x61657263,0x18(%eax)
 804984a:	c7 40 1c 74 65 20 73 	movl   $0x73206574,0x1c(%eax)
 8049851:	c7 40 20 6f 63 6b 65 	movl   $0x656b636f,0x20(%eax)
 8049858:	66 c7 40 24 74 00    	movw   $0x74,0x24(%eax)
 804985e:	b8 ff ff ff ff       	mov    $0xffffffff,%eax
 8049863:	e9 3f 06 00 00       	jmp    8049ea7 <submitr+0x702>
 8049868:	83 ec 0c             	sub    $0xc,%esp
 804986b:	56                   	push   %esi
 804986c:	e8 9f f0 ff ff       	call   8048910 <gethostbyname@plt>
 8049871:	83 c4 10             	add    $0x10,%esp
 8049874:	85 c0                	test   %eax,%eax
 8049876:	75 73                	jne    80498eb <submitr+0x146>
 8049878:	8b 44 24 18          	mov    0x18(%esp),%eax
 804987c:	c7 00 45 72 72 6f    	movl   $0x6f727245,(%eax)
 8049882:	c7 40 04 72 3a 20 44 	movl   $0x44203a72,0x4(%eax)
 8049889:	c7 40 08 4e 53 20 69 	movl   $0x6920534e,0x8(%eax)
 8049890:	c7 40 0c 73 20 75 6e 	movl   $0x6e752073,0xc(%eax)
 8049897:	c7 40 10 61 62 6c 65 	movl   $0x656c6261,0x10(%eax)
 804989e:	c7 40 14 20 74 6f 20 	movl   $0x206f7420,0x14(%eax)
 80498a5:	c7 40 18 72 65 73 6f 	movl   $0x6f736572,0x18(%eax)
 80498ac:	c7 40 1c 6c 76 65 20 	movl   $0x2065766c,0x1c(%eax)
 80498b3:	c7 40 20 73 65 72 76 	movl   $0x76726573,0x20(%eax)
 80498ba:	c7 40 24 65 72 20 61 	movl   $0x61207265,0x24(%eax)
 80498c1:	c7 40 28 64 64 72 65 	movl   $0x65726464,0x28(%eax)
 80498c8:	66 c7 40 2c 73 73    	movw   $0x7373,0x2c(%eax)
 80498ce:	c6 40 2e 00          	movb   $0x0,0x2e(%eax)
 80498d2:	83 ec 0c             	sub    $0xc,%esp
 80498d5:	ff 74 24 14          	pushl  0x14(%esp)
 80498d9:	e8 62 f0 ff ff       	call   8048940 <close@plt>
 80498de:	83 c4 10             	add    $0x10,%esp
 80498e1:	b8 ff ff ff ff       	mov    $0xffffffff,%eax
 80498e6:	e9 bc 05 00 00       	jmp    8049ea7 <submitr+0x702>
 80498eb:	8d 74 24 30          	lea    0x30(%esp),%esi
 80498ef:	c7 44 24 30 00 00 00 	movl   $0x0,0x30(%esp)
 80498f6:	00 
 80498f7:	c7 44 24 34 00 00 00 	movl   $0x0,0x34(%esp)
 80498fe:	00 
 80498ff:	c7 44 24 38 00 00 00 	movl   $0x0,0x38(%esp)
 8049906:	00 
 8049907:	c7 44 24 3c 00 00 00 	movl   $0x0,0x3c(%esp)
 804990e:	00 
 804990f:	66 c7 44 24 30 02 00 	movw   $0x2,0x30(%esp)
 8049916:	6a 0c                	push   $0xc
 8049918:	ff 70 0c             	pushl  0xc(%eax)
 804991b:	8b 40 10             	mov    0x10(%eax),%eax
 804991e:	ff 30                	pushl  (%eax)
 8049920:	8d 44 24 40          	lea    0x40(%esp),%eax
 8049924:	50                   	push   %eax
 8049925:	e8 36 ef ff ff       	call   8048860 <__memmove_chk@plt>
 804992a:	0f b7 84 24 84 a0 00 	movzwl 0xa084(%esp),%eax
 8049931:	00 
 8049932:	66 c1 c8 08          	ror    $0x8,%ax
 8049936:	66 89 44 24 42       	mov    %ax,0x42(%esp)
 804993b:	83 c4 0c             	add    $0xc,%esp
 804993e:	6a 10                	push   $0x10
 8049940:	56                   	push   %esi
 8049941:	ff 74 24 14          	pushl  0x14(%esp)
 8049945:	e8 e6 ef ff ff       	call   8048930 <connect@plt>
 804994a:	83 c4 10             	add    $0x10,%esp
 804994d:	85 c0                	test   %eax,%eax
 804994f:	79 65                	jns    80499b6 <submitr+0x211>
 8049951:	8b 44 24 18          	mov    0x18(%esp),%eax
 8049955:	c7 00 45 72 72 6f    	movl   $0x6f727245,(%eax)
 804995b:	c7 40 04 72 3a 20 55 	movl   $0x55203a72,0x4(%eax)
 8049962:	c7 40 08 6e 61 62 6c 	movl   $0x6c62616e,0x8(%eax)
 8049969:	c7 40 0c 65 20 74 6f 	movl   $0x6f742065,0xc(%eax)
 8049970:	c7 40 10 20 63 6f 6e 	movl   $0x6e6f6320,0x10(%eax)
 8049977:	c7 40 14 6e 65 63 74 	movl   $0x7463656e,0x14(%eax)
 804997e:	c7 40 18 20 74 6f 20 	movl   $0x206f7420,0x18(%eax)
 8049985:	c7 40 1c 74 68 65 20 	movl   $0x20656874,0x1c(%eax)
 804998c:	c7 40 20 73 65 72 76 	movl   $0x76726573,0x20(%eax)
 8049993:	66 c7 40 24 65 72    	movw   $0x7265,0x24(%eax)
 8049999:	c6 40 26 00          	movb   $0x0,0x26(%eax)
 804999d:	83 ec 0c             	sub    $0xc,%esp
 80499a0:	ff 74 24 14          	pushl  0x14(%esp)
 80499a4:	e8 97 ef ff ff       	call   8048940 <close@plt>
 80499a9:	83 c4 10             	add    $0x10,%esp
 80499ac:	b8 ff ff ff ff       	mov    $0xffffffff,%eax
 80499b1:	e9 f1 04 00 00       	jmp    8049ea7 <submitr+0x702>
 80499b6:	be ff ff ff ff       	mov    $0xffffffff,%esi
 80499bb:	b8 00 00 00 00       	mov    $0x0,%eax
 80499c0:	89 f1                	mov    %esi,%ecx
 80499c2:	89 df                	mov    %ebx,%edi
 80499c4:	f2 ae                	repnz scas %es:(%edi),%al
 80499c6:	f7 d1                	not    %ecx
 80499c8:	89 cd                	mov    %ecx,%ebp
 80499ca:	89 f1                	mov    %esi,%ecx
 80499cc:	8b 7c 24 0c          	mov    0xc(%esp),%edi
 80499d0:	f2 ae                	repnz scas %es:(%edi),%al
 80499d2:	89 4c 24 1c          	mov    %ecx,0x1c(%esp)
 80499d6:	89 f1                	mov    %esi,%ecx
 80499d8:	8b 7c 24 10          	mov    0x10(%esp),%edi
 80499dc:	f2 ae                	repnz scas %es:(%edi),%al
 80499de:	89 ca                	mov    %ecx,%edx
 80499e0:	f7 d2                	not    %edx
 80499e2:	89 f1                	mov    %esi,%ecx
 80499e4:	8b 7c 24 14          	mov    0x14(%esp),%edi
 80499e8:	f2 ae                	repnz scas %es:(%edi),%al
 80499ea:	2b 54 24 1c          	sub    0x1c(%esp),%edx
 80499ee:	29 ca                	sub    %ecx,%edx
 80499f0:	8d 44 6d fd          	lea    -0x3(%ebp,%ebp,2),%eax
 80499f4:	8d 44 02 7b          	lea    0x7b(%edx,%eax,1),%eax
 80499f8:	3d 00 20 00 00       	cmp    $0x2000,%eax
 80499fd:	76 7e                	jbe    8049a7d <submitr+0x2d8>
 80499ff:	8b 44 24 18          	mov    0x18(%esp),%eax
 8049a03:	c7 00 45 72 72 6f    	movl   $0x6f727245,(%eax)
 8049a09:	c7 40 04 72 3a 20 52 	movl   $0x52203a72,0x4(%eax)
 8049a10:	c7 40 08 65 73 75 6c 	movl   $0x6c757365,0x8(%eax)
 8049a17:	c7 40 0c 74 20 73 74 	movl   $0x74732074,0xc(%eax)
 8049a1e:	c7 40 10 72 69 6e 67 	movl   $0x676e6972,0x10(%eax)
 8049a25:	c7 40 14 20 74 6f 6f 	movl   $0x6f6f7420,0x14(%eax)
 8049a2c:	c7 40 18 20 6c 61 72 	movl   $0x72616c20,0x18(%eax)
 8049a33:	c7 40 1c 67 65 2e 20 	movl   $0x202e6567,0x1c(%eax)
 8049a3a:	c7 40 20 49 6e 63 72 	movl   $0x72636e49,0x20(%eax)
 8049a41:	c7 40 24 65 61 73 65 	movl   $0x65736165,0x24(%eax)
 8049a48:	c7 40 28 20 53 55 42 	movl   $0x42555320,0x28(%eax)
 8049a4f:	c7 40 2c 4d 49 54 52 	movl   $0x5254494d,0x2c(%eax)
 8049a56:	c7 40 30 5f 4d 41 58 	movl   $0x58414d5f,0x30(%eax)
 8049a5d:	c7 40 34 42 55 46 00 	movl   $0x465542,0x34(%eax)
 8049a64:	83 ec 0c             	sub    $0xc,%esp
 8049a67:	ff 74 24 14          	pushl  0x14(%esp)
 8049a6b:	e8 d0 ee ff ff       	call   8048940 <close@plt>
 8049a70:	83 c4 10             	add    $0x10,%esp
 8049a73:	b8 ff ff ff ff       	mov    $0xffffffff,%eax
 8049a78:	e9 2a 04 00 00       	jmp    8049ea7 <submitr+0x702>
 8049a7d:	8d 94 24 4c 40 00 00 	lea    0x404c(%esp),%edx
 8049a84:	b9 00 08 00 00       	mov    $0x800,%ecx
 8049a89:	b8 00 00 00 00       	mov    $0x0,%eax
 8049a8e:	89 d7                	mov    %edx,%edi
 8049a90:	f3 ab                	rep stos %eax,%es:(%edi)
 8049a92:	b9 ff ff ff ff       	mov    $0xffffffff,%ecx
 8049a97:	89 df                	mov    %ebx,%edi
 8049a99:	f2 ae                	repnz scas %es:(%edi),%al
 8049a9b:	f7 d1                	not    %ecx
 8049a9d:	89 ce                	mov    %ecx,%esi
 8049a9f:	83 ee 01             	sub    $0x1,%esi
 8049aa2:	0f 84 5c 04 00 00    	je     8049f04 <submitr+0x75f>
 8049aa8:	89 d5                	mov    %edx,%ebp
 8049aaa:	bf d9 ff 00 00       	mov    $0xffd9,%edi
 8049aaf:	0f b6 13             	movzbl (%ebx),%edx
 8049ab2:	8d 4a d6             	lea    -0x2a(%edx),%ecx
 8049ab5:	b8 01 00 00 00       	mov    $0x1,%eax
 8049aba:	80 f9 0f             	cmp    $0xf,%cl
 8049abd:	77 0a                	ja     8049ac9 <submitr+0x324>
 8049abf:	89 f8                	mov    %edi,%eax
 8049ac1:	d3 e8                	shr    %cl,%eax
 8049ac3:	83 f0 01             	xor    $0x1,%eax
 8049ac6:	83 e0 01             	and    $0x1,%eax
 8049ac9:	80 fa 5f             	cmp    $0x5f,%dl
 8049acc:	0f 94 c1             	sete   %cl
 8049acf:	38 c1                	cmp    %al,%cl
 8049ad1:	73 0c                	jae    8049adf <submitr+0x33a>
 8049ad3:	89 d0                	mov    %edx,%eax
 8049ad5:	83 e0 df             	and    $0xffffffdf,%eax
 8049ad8:	83 e8 41             	sub    $0x41,%eax
 8049adb:	3c 19                	cmp    $0x19,%al
 8049add:	77 08                	ja     8049ae7 <submitr+0x342>
 8049adf:	88 55 00             	mov    %dl,0x0(%ebp)
 8049ae2:	8d 6d 01             	lea    0x1(%ebp),%ebp
 8049ae5:	eb 62                	jmp    8049b49 <submitr+0x3a4>
 8049ae7:	80 fa 20             	cmp    $0x20,%dl
 8049aea:	75 09                	jne    8049af5 <submitr+0x350>
 8049aec:	c6 45 00 2b          	movb   $0x2b,0x0(%ebp)
 8049af0:	8d 6d 01             	lea    0x1(%ebp),%ebp
 8049af3:	eb 54                	jmp    8049b49 <submitr+0x3a4>
 8049af5:	8d 42 e0             	lea    -0x20(%edx),%eax
 8049af8:	3c 5f                	cmp    $0x5f,%al
 8049afa:	76 09                	jbe    8049b05 <submitr+0x360>
 8049afc:	80 fa 09             	cmp    $0x9,%dl
 8049aff:	0f 85 bb 03 00 00    	jne    8049ec0 <submitr+0x71b>
 8049b05:	83 ec 0c             	sub    $0xc,%esp
 8049b08:	0f b6 d2             	movzbl %dl,%edx
 8049b0b:	52                   	push   %edx
 8049b0c:	68 10 ac 04 08       	push   $0x804ac10
 8049b11:	6a 08                	push   $0x8
 8049b13:	6a 01                	push   $0x1
 8049b15:	8d 84 24 68 80 00 00 	lea    0x8068(%esp),%eax
 8049b1c:	50                   	push   %eax
 8049b1d:	e8 3e ee ff ff       	call   8048960 <__sprintf_chk@plt>
 8049b22:	0f b6 84 24 6c 80 00 	movzbl 0x806c(%esp),%eax
 8049b29:	00 
 8049b2a:	88 45 00             	mov    %al,0x0(%ebp)
 8049b2d:	0f b6 84 24 6d 80 00 	movzbl 0x806d(%esp),%eax
 8049b34:	00 
 8049b35:	88 45 01             	mov    %al,0x1(%ebp)
 8049b38:	0f b6 84 24 6e 80 00 	movzbl 0x806e(%esp),%eax
 8049b3f:	00 
 8049b40:	88 45 02             	mov    %al,0x2(%ebp)
 8049b43:	83 c4 20             	add    $0x20,%esp
 8049b46:	8d 6d 03             	lea    0x3(%ebp),%ebp
 8049b49:	83 c3 01             	add    $0x1,%ebx
 8049b4c:	83 ee 01             	sub    $0x1,%esi
 8049b4f:	0f 85 5a ff ff ff    	jne    8049aaf <submitr+0x30a>
 8049b55:	e9 aa 03 00 00       	jmp    8049f04 <submitr+0x75f>
 8049b5a:	83 ec 04             	sub    $0x4,%esp
 8049b5d:	53                   	push   %ebx
 8049b5e:	56                   	push   %esi
 8049b5f:	55                   	push   %ebp
 8049b60:	e8 2b ed ff ff       	call   8048890 <write@plt>
 8049b65:	83 c4 10             	add    $0x10,%esp
 8049b68:	85 c0                	test   %eax,%eax
 8049b6a:	7f 0f                	jg     8049b7b <submitr+0x3d6>
 8049b6c:	e8 5f ed ff ff       	call   80488d0 <__errno_location@plt>
 8049b71:	83 38 04             	cmpl   $0x4,(%eax)
 8049b74:	75 0f                	jne    8049b85 <submitr+0x3e0>
 8049b76:	b8 00 00 00 00       	mov    $0x0,%eax
 8049b7b:	01 c6                	add    %eax,%esi
 8049b7d:	29 c3                	sub    %eax,%ebx
 8049b7f:	75 d9                	jne    8049b5a <submitr+0x3b5>
 8049b81:	85 ff                	test   %edi,%edi
 8049b83:	79 69                	jns    8049bee <submitr+0x449>
 8049b85:	8b 44 24 18          	mov    0x18(%esp),%eax
 8049b89:	c7 00 45 72 72 6f    	movl   $0x6f727245,(%eax)
 8049b8f:	c7 40 04 72 3a 20 43 	movl   $0x43203a72,0x4(%eax)
 8049b96:	c7 40 08 6c 69 65 6e 	movl   $0x6e65696c,0x8(%eax)
 8049b9d:	c7 40 0c 74 20 75 6e 	movl   $0x6e752074,0xc(%eax)
 8049ba4:	c7 40 10 61 62 6c 65 	movl   $0x656c6261,0x10(%eax)
 8049bab:	c7 40 14 20 74 6f 20 	movl   $0x206f7420,0x14(%eax)
 8049bb2:	c7 40 18 77 72 69 74 	movl   $0x74697277,0x18(%eax)
 8049bb9:	c7 40 1c 65 20 74 6f 	movl   $0x6f742065,0x1c(%eax)
 8049bc0:	c7 40 20 20 74 68 65 	movl   $0x65687420,0x20(%eax)
 8049bc7:	c7 40 24 20 73 65 72 	movl   $0x72657320,0x24(%eax)
 8049bce:	c7 40 28 76 65 72 00 	movl   $0x726576,0x28(%eax)
 8049bd5:	83 ec 0c             	sub    $0xc,%esp
 8049bd8:	ff 74 24 14          	pushl  0x14(%esp)
 8049bdc:	e8 5f ed ff ff       	call   8048940 <close@plt>
 8049be1:	83 c4 10             	add    $0x10,%esp
 8049be4:	b8 ff ff ff ff       	mov    $0xffffffff,%eax
 8049be9:	e9 b9 02 00 00       	jmp    8049ea7 <submitr+0x702>
 8049bee:	8b 44 24 08          	mov    0x8(%esp),%eax
 8049bf2:	89 44 24 40          	mov    %eax,0x40(%esp)
 8049bf6:	c7 44 24 44 00 00 00 	movl   $0x0,0x44(%esp)
 8049bfd:	00 
 8049bfe:	8d 44 24 4c          	lea    0x4c(%esp),%eax
 8049c02:	89 44 24 48          	mov    %eax,0x48(%esp)
 8049c06:	b9 00 20 00 00       	mov    $0x2000,%ecx
 8049c0b:	8d 94 24 4c 20 00 00 	lea    0x204c(%esp),%edx
 8049c12:	8d 44 24 40          	lea    0x40(%esp),%eax
 8049c16:	e8 b6 fa ff ff       	call   80496d1 <rio_readlineb>
 8049c1b:	85 c0                	test   %eax,%eax
 8049c1d:	7f 7d                	jg     8049c9c <submitr+0x4f7>
 8049c1f:	8b 44 24 18          	mov    0x18(%esp),%eax
 8049c23:	c7 00 45 72 72 6f    	movl   $0x6f727245,(%eax)
 8049c29:	c7 40 04 72 3a 20 43 	movl   $0x43203a72,0x4(%eax)
 8049c30:	c7 40 08 6c 69 65 6e 	movl   $0x6e65696c,0x8(%eax)
 8049c37:	c7 40 0c 74 20 75 6e 	movl   $0x6e752074,0xc(%eax)
 8049c3e:	c7 40 10 61 62 6c 65 	movl   $0x656c6261,0x10(%eax)
 8049c45:	c7 40 14 20 74 6f 20 	movl   $0x206f7420,0x14(%eax)
 8049c4c:	c7 40 18 72 65 61 64 	movl   $0x64616572,0x18(%eax)
 8049c53:	c7 40 1c 20 66 69 72 	movl   $0x72696620,0x1c(%eax)
 8049c5a:	c7 40 20 73 74 20 68 	movl   $0x68207473,0x20(%eax)
 8049c61:	c7 40 24 65 61 64 65 	movl   $0x65646165,0x24(%eax)
 8049c68:	c7 40 28 72 20 66 72 	movl   $0x72662072,0x28(%eax)
 8049c6f:	c7 40 2c 6f 6d 20 73 	movl   $0x73206d6f,0x2c(%eax)
 8049c76:	c7 40 30 65 72 76 65 	movl   $0x65767265,0x30(%eax)
 8049c7d:	66 c7 40 34 72 00    	movw   $0x72,0x34(%eax)
 8049c83:	83 ec 0c             	sub    $0xc,%esp
 8049c86:	ff 74 24 14          	pushl  0x14(%esp)
 8049c8a:	e8 b1 ec ff ff       	call   8048940 <close@plt>
 8049c8f:	83 c4 10             	add    $0x10,%esp
 8049c92:	b8 ff ff ff ff       	mov    $0xffffffff,%eax
 8049c97:	e9 0b 02 00 00       	jmp    8049ea7 <submitr+0x702>
 8049c9c:	83 ec 0c             	sub    $0xc,%esp
 8049c9f:	8d 84 24 58 80 00 00 	lea    0x8058(%esp),%eax
 8049ca6:	50                   	push   %eax
 8049ca7:	8d 44 24 3c          	lea    0x3c(%esp),%eax
 8049cab:	50                   	push   %eax
 8049cac:	8d 84 24 60 60 00 00 	lea    0x6060(%esp),%eax
 8049cb3:	50                   	push   %eax
 8049cb4:	68 17 ac 04 08       	push   $0x804ac17
 8049cb9:	8d 84 24 68 20 00 00 	lea    0x2068(%esp),%eax
 8049cc0:	50                   	push   %eax
 8049cc1:	e8 ea eb ff ff       	call   80488b0 <__isoc99_sscanf@plt>
 8049cc6:	8b 44 24 4c          	mov    0x4c(%esp),%eax
 8049cca:	83 c4 20             	add    $0x20,%esp
 8049ccd:	3d c8 00 00 00       	cmp    $0xc8,%eax
 8049cd2:	0f 84 c4 00 00 00    	je     8049d9c <submitr+0x5f7>
 8049cd8:	83 ec 08             	sub    $0x8,%esp
 8049cdb:	8d 94 24 54 80 00 00 	lea    0x8054(%esp),%edx
 8049ce2:	52                   	push   %edx
 8049ce3:	50                   	push   %eax
 8049ce4:	68 28 ab 04 08       	push   $0x804ab28
 8049ce9:	6a ff                	push   $0xffffffff
 8049ceb:	6a 01                	push   $0x1
 8049ced:	ff 74 24 34          	pushl  0x34(%esp)
 8049cf1:	e8 6a ec ff ff       	call   8048960 <__sprintf_chk@plt>
 8049cf6:	83 c4 14             	add    $0x14,%esp
 8049cf9:	ff 74 24 14          	pushl  0x14(%esp)
 8049cfd:	e8 3e ec ff ff       	call   8048940 <close@plt>
 8049d02:	83 c4 10             	add    $0x10,%esp
 8049d05:	b8 ff ff ff ff       	mov    $0xffffffff,%eax
 8049d0a:	e9 98 01 00 00       	jmp    8049ea7 <submitr+0x702>
 8049d0f:	b9 00 20 00 00       	mov    $0x2000,%ecx
 8049d14:	8d 94 24 4c 20 00 00 	lea    0x204c(%esp),%edx
 8049d1b:	8d 44 24 40          	lea    0x40(%esp),%eax
 8049d1f:	e8 ad f9 ff ff       	call   80496d1 <rio_readlineb>
 8049d24:	85 c0                	test   %eax,%eax
 8049d26:	7f 74                	jg     8049d9c <submitr+0x5f7>
 8049d28:	8b 44 24 18          	mov    0x18(%esp),%eax
 8049d2c:	c7 00 45 72 72 6f    	movl   $0x6f727245,(%eax)
 8049d32:	c7 40 04 72 3a 20 43 	movl   $0x43203a72,0x4(%eax)
 8049d39:	c7 40 08 6c 69 65 6e 	movl   $0x6e65696c,0x8(%eax)
 8049d40:	c7 40 0c 74 20 75 6e 	movl   $0x6e752074,0xc(%eax)
 8049d47:	c7 40 10 61 62 6c 65 	movl   $0x656c6261,0x10(%eax)
 8049d4e:	c7 40 14 20 74 6f 20 	movl   $0x206f7420,0x14(%eax)
 8049d55:	c7 40 18 72 65 61 64 	movl   $0x64616572,0x18(%eax)
 8049d5c:	c7 40 1c 20 68 65 61 	movl   $0x61656820,0x1c(%eax)
 8049d63:	c7 40 20 64 65 72 73 	movl   $0x73726564,0x20(%eax)
 8049d6a:	c7 40 24 20 66 72 6f 	movl   $0x6f726620,0x24(%eax)
 8049d71:	c7 40 28 6d 20 73 65 	movl   $0x6573206d,0x28(%eax)
 8049d78:	c7 40 2c 72 76 65 72 	movl   $0x72657672,0x2c(%eax)
 8049d7f:	c6 40 30 00          	movb   $0x0,0x30(%eax)
 8049d83:	83 ec 0c             	sub    $0xc,%esp
 8049d86:	ff 74 24 14          	pushl  0x14(%esp)
 8049d8a:	e8 b1 eb ff ff       	call   8048940 <close@plt>
 8049d8f:	83 c4 10             	add    $0x10,%esp
 8049d92:	b8 ff ff ff ff       	mov    $0xffffffff,%eax
 8049d97:	e9 0b 01 00 00       	jmp    8049ea7 <submitr+0x702>
 8049d9c:	80 bc 24 4c 20 00 00 	cmpb   $0xd,0x204c(%esp)
 8049da3:	0d 
 8049da4:	0f 85 65 ff ff ff    	jne    8049d0f <submitr+0x56a>
 8049daa:	80 bc 24 4d 20 00 00 	cmpb   $0xa,0x204d(%esp)
 8049db1:	0a 
 8049db2:	0f 85 57 ff ff ff    	jne    8049d0f <submitr+0x56a>
 8049db8:	80 bc 24 4e 20 00 00 	cmpb   $0x0,0x204e(%esp)
 8049dbf:	00 
 8049dc0:	0f 85 49 ff ff ff    	jne    8049d0f <submitr+0x56a>
 8049dc6:	b9 00 20 00 00       	mov    $0x2000,%ecx
 8049dcb:	8d 94 24 4c 20 00 00 	lea    0x204c(%esp),%edx
 8049dd2:	8d 44 24 40          	lea    0x40(%esp),%eax
 8049dd6:	e8 f6 f8 ff ff       	call   80496d1 <rio_readlineb>
 8049ddb:	85 c0                	test   %eax,%eax
 8049ddd:	7f 7b                	jg     8049e5a <submitr+0x6b5>
 8049ddf:	8b 44 24 18          	mov    0x18(%esp),%eax
 8049de3:	c7 00 45 72 72 6f    	movl   $0x6f727245,(%eax)
 8049de9:	c7 40 04 72 3a 20 43 	movl   $0x43203a72,0x4(%eax)
 8049df0:	c7 40 08 6c 69 65 6e 	movl   $0x6e65696c,0x8(%eax)
 8049df7:	c7 40 0c 74 20 75 6e 	movl   $0x6e752074,0xc(%eax)
 8049dfe:	c7 40 10 61 62 6c 65 	movl   $0x656c6261,0x10(%eax)
 8049e05:	c7 40 14 20 74 6f 20 	movl   $0x206f7420,0x14(%eax)
 8049e0c:	c7 40 18 72 65 61 64 	movl   $0x64616572,0x18(%eax)
 8049e13:	c7 40 1c 20 73 74 61 	movl   $0x61747320,0x1c(%eax)
 8049e1a:	c7 40 20 74 75 73 20 	movl   $0x20737574,0x20(%eax)
 8049e21:	c7 40 24 6d 65 73 73 	movl   $0x7373656d,0x24(%eax)
 8049e28:	c7 40 28 61 67 65 20 	movl   $0x20656761,0x28(%eax)
 8049e2f:	c7 40 2c 66 72 6f 6d 	movl   $0x6d6f7266,0x2c(%eax)
 8049e36:	c7 40 30 20 73 65 72 	movl   $0x72657320,0x30(%eax)
 8049e3d:	c7 40 34 76 65 72 00 	movl   $0x726576,0x34(%eax)
 8049e44:	83 ec 0c             	sub    $0xc,%esp
 8049e47:	ff 74 24 14          	pushl  0x14(%esp)
 8049e4b:	e8 f0 ea ff ff       	call   8048940 <close@plt>
 8049e50:	83 c4 10             	add    $0x10,%esp
 8049e53:	b8 ff ff ff ff       	mov    $0xffffffff,%eax
 8049e58:	eb 4d                	jmp    8049ea7 <submitr+0x702>
 8049e5a:	83 ec 08             	sub    $0x8,%esp
 8049e5d:	8d 84 24 54 20 00 00 	lea    0x2054(%esp),%eax
 8049e64:	50                   	push   %eax
 8049e65:	8b 7c 24 24          	mov    0x24(%esp),%edi
 8049e69:	57                   	push   %edi
 8049e6a:	e8 a1 e9 ff ff       	call   8048810 <strcpy@plt>
 8049e6f:	83 c4 04             	add    $0x4,%esp
 8049e72:	ff 74 24 14          	pushl  0x14(%esp)
 8049e76:	e8 c5 ea ff ff       	call   8048940 <close@plt>
 8049e7b:	0f b6 17             	movzbl (%edi),%edx
 8049e7e:	b8 4f 00 00 00       	mov    $0x4f,%eax
 8049e83:	83 c4 10             	add    $0x10,%esp
 8049e86:	29 d0                	sub    %edx,%eax
 8049e88:	75 13                	jne    8049e9d <submitr+0x6f8>
 8049e8a:	0f b6 57 01          	movzbl 0x1(%edi),%edx
 8049e8e:	b8 4b 00 00 00       	mov    $0x4b,%eax
 8049e93:	29 d0                	sub    %edx,%eax
 8049e95:	75 06                	jne    8049e9d <submitr+0x6f8>
 8049e97:	0f b6 47 02          	movzbl 0x2(%edi),%eax
 8049e9b:	f7 d8                	neg    %eax
 8049e9d:	85 c0                	test   %eax,%eax
 8049e9f:	0f 95 c0             	setne  %al
 8049ea2:	0f b6 c0             	movzbl %al,%eax
 8049ea5:	f7 d8                	neg    %eax
 8049ea7:	8b bc 24 4c a0 00 00 	mov    0xa04c(%esp),%edi
 8049eae:	65 33 3d 14 00 00 00 	xor    %gs:0x14,%edi
 8049eb5:	0f 84 a9 00 00 00    	je     8049f64 <submitr+0x7bf>
 8049ebb:	e9 9f 00 00 00       	jmp    8049f5f <submitr+0x7ba>
 8049ec0:	a1 58 ab 04 08       	mov    0x804ab58,%eax
 8049ec5:	8b 7c 24 18          	mov    0x18(%esp),%edi
 8049ec9:	89 07                	mov    %eax,(%edi)
 8049ecb:	a1 97 ab 04 08       	mov    0x804ab97,%eax
 8049ed0:	89 47 3f             	mov    %eax,0x3f(%edi)
 8049ed3:	89 f8                	mov    %edi,%eax
 8049ed5:	83 c7 04             	add    $0x4,%edi
 8049ed8:	83 e7 fc             	and    $0xfffffffc,%edi
 8049edb:	29 f8                	sub    %edi,%eax
 8049edd:	be 58 ab 04 08       	mov    $0x804ab58,%esi
 8049ee2:	29 c6                	sub    %eax,%esi
 8049ee4:	83 c0 43             	add    $0x43,%eax
 8049ee7:	c1 e8 02             	shr    $0x2,%eax
 8049eea:	89 c1                	mov    %eax,%ecx
 8049eec:	f3 a5                	rep movsl %ds:(%esi),%es:(%edi)
 8049eee:	83 ec 0c             	sub    $0xc,%esp
 8049ef1:	ff 74 24 14          	pushl  0x14(%esp)
 8049ef5:	e8 46 ea ff ff       	call   8048940 <close@plt>
 8049efa:	83 c4 10             	add    $0x10,%esp
 8049efd:	b8 ff ff ff ff       	mov    $0xffffffff,%eax
 8049f02:	eb a3                	jmp    8049ea7 <submitr+0x702>
 8049f04:	8d 84 24 4c 40 00 00 	lea    0x404c(%esp),%eax
 8049f0b:	50                   	push   %eax
 8049f0c:	ff 74 24 18          	pushl  0x18(%esp)
 8049f10:	ff 74 24 18          	pushl  0x18(%esp)
 8049f14:	ff 74 24 18          	pushl  0x18(%esp)
 8049f18:	68 9c ab 04 08       	push   $0x804ab9c
 8049f1d:	68 00 20 00 00       	push   $0x2000
 8049f22:	6a 01                	push   $0x1
 8049f24:	8d bc 24 68 20 00 00 	lea    0x2068(%esp),%edi
 8049f2b:	57                   	push   %edi
 8049f2c:	e8 2f ea ff ff       	call   8048960 <__sprintf_chk@plt>
 8049f31:	b8 00 00 00 00       	mov    $0x0,%eax
 8049f36:	b9 ff ff ff ff       	mov    $0xffffffff,%ecx
 8049f3b:	f2 ae                	repnz scas %es:(%edi),%al
 8049f3d:	f7 d1                	not    %ecx
 8049f3f:	8d 79 ff             	lea    -0x1(%ecx),%edi
 8049f42:	83 c4 20             	add    $0x20,%esp
 8049f45:	89 fb                	mov    %edi,%ebx
 8049f47:	8d b4 24 4c 20 00 00 	lea    0x204c(%esp),%esi
 8049f4e:	8b 6c 24 08          	mov    0x8(%esp),%ebp
 8049f52:	85 ff                	test   %edi,%edi
 8049f54:	0f 85 00 fc ff ff    	jne    8049b5a <submitr+0x3b5>
 8049f5a:	e9 8f fc ff ff       	jmp    8049bee <submitr+0x449>
 8049f5f:	e8 9c e8 ff ff       	call   8048800 <__stack_chk_fail@plt>
 8049f64:	81 c4 5c a0 00 00    	add    $0xa05c,%esp
 8049f6a:	5b                   	pop    %ebx
 8049f6b:	5e                   	pop    %esi
 8049f6c:	5f                   	pop    %edi
 8049f6d:	5d                   	pop    %ebp
 8049f6e:	c3                   	ret    

08049f6f <init_timeout>:
 8049f6f:	53                   	push   %ebx
 8049f70:	83 ec 08             	sub    $0x8,%esp
 8049f73:	8b 5c 24 10          	mov    0x10(%esp),%ebx
 8049f77:	85 db                	test   %ebx,%ebx
 8049f79:	74 24                	je     8049f9f <init_timeout+0x30>
 8049f7b:	83 ec 08             	sub    $0x8,%esp
 8049f7e:	68 ae 96 04 08       	push   $0x80496ae
 8049f83:	6a 0e                	push   $0xe
 8049f85:	e8 46 e8 ff ff       	call   80487d0 <signal@plt>
 8049f8a:	85 db                	test   %ebx,%ebx
 8049f8c:	b8 00 00 00 00       	mov    $0x0,%eax
 8049f91:	0f 48 d8             	cmovs  %eax,%ebx
 8049f94:	89 1c 24             	mov    %ebx,(%esp)
 8049f97:	e8 54 e8 ff ff       	call   80487f0 <alarm@plt>
 8049f9c:	83 c4 10             	add    $0x10,%esp
 8049f9f:	83 c4 08             	add    $0x8,%esp
 8049fa2:	5b                   	pop    %ebx
 8049fa3:	c3                   	ret    

08049fa4 <init_driver>:
 8049fa4:	57                   	push   %edi
 8049fa5:	56                   	push   %esi
 8049fa6:	53                   	push   %ebx
 8049fa7:	83 ec 28             	sub    $0x28,%esp
 8049faa:	8b 74 24 38          	mov    0x38(%esp),%esi
 8049fae:	65 a1 14 00 00 00    	mov    %gs:0x14,%eax
 8049fb4:	89 44 24 24          	mov    %eax,0x24(%esp)
 8049fb8:	31 c0                	xor    %eax,%eax
 8049fba:	6a 01                	push   $0x1
 8049fbc:	6a 0d                	push   $0xd
 8049fbe:	e8 0d e8 ff ff       	call   80487d0 <signal@plt>
 8049fc3:	83 c4 08             	add    $0x8,%esp
 8049fc6:	6a 01                	push   $0x1
 8049fc8:	6a 1d                	push   $0x1d
 8049fca:	e8 01 e8 ff ff       	call   80487d0 <signal@plt>
 8049fcf:	83 c4 08             	add    $0x8,%esp
 8049fd2:	6a 01                	push   $0x1
 8049fd4:	6a 1d                	push   $0x1d
 8049fd6:	e8 f5 e7 ff ff       	call   80487d0 <signal@plt>
 8049fdb:	83 c4 0c             	add    $0xc,%esp
 8049fde:	6a 00                	push   $0x0
 8049fe0:	6a 01                	push   $0x1
 8049fe2:	6a 02                	push   $0x2
 8049fe4:	e8 07 e9 ff ff       	call   80488f0 <socket@plt>
 8049fe9:	83 c4 10             	add    $0x10,%esp
 8049fec:	85 c0                	test   %eax,%eax
 8049fee:	79 4e                	jns    804a03e <init_driver+0x9a>
 8049ff0:	c7 06 45 72 72 6f    	movl   $0x6f727245,(%esi)
 8049ff6:	c7 46 04 72 3a 20 43 	movl   $0x43203a72,0x4(%esi)
 8049ffd:	c7 46 08 6c 69 65 6e 	movl   $0x6e65696c,0x8(%esi)
 804a004:	c7 46 0c 74 20 75 6e 	movl   $0x6e752074,0xc(%esi)
 804a00b:	c7 46 10 61 62 6c 65 	movl   $0x656c6261,0x10(%esi)
 804a012:	c7 46 14 20 74 6f 20 	movl   $0x206f7420,0x14(%esi)
 804a019:	c7 46 18 63 72 65 61 	movl   $0x61657263,0x18(%esi)
 804a020:	c7 46 1c 74 65 20 73 	movl   $0x73206574,0x1c(%esi)
 804a027:	c7 46 20 6f 63 6b 65 	movl   $0x656b636f,0x20(%esi)
 804a02e:	66 c7 46 24 74 00    	movw   $0x74,0x24(%esi)
 804a034:	b8 ff ff ff ff       	mov    $0xffffffff,%eax
 804a039:	e9 1f 01 00 00       	jmp    804a15d <init_driver+0x1b9>
 804a03e:	89 c3                	mov    %eax,%ebx
 804a040:	83 ec 0c             	sub    $0xc,%esp
 804a043:	68 28 ac 04 08       	push   $0x804ac28
 804a048:	e8 c3 e8 ff ff       	call   8048910 <gethostbyname@plt>
 804a04d:	83 c4 10             	add    $0x10,%esp
 804a050:	85 c0                	test   %eax,%eax
 804a052:	75 6c                	jne    804a0c0 <init_driver+0x11c>
 804a054:	c7 06 45 72 72 6f    	movl   $0x6f727245,(%esi)
 804a05a:	c7 46 04 72 3a 20 44 	movl   $0x44203a72,0x4(%esi)
 804a061:	c7 46 08 4e 53 20 69 	movl   $0x6920534e,0x8(%esi)
 804a068:	c7 46 0c 73 20 75 6e 	movl   $0x6e752073,0xc(%esi)
 804a06f:	c7 46 10 61 62 6c 65 	movl   $0x656c6261,0x10(%esi)
 804a076:	c7 46 14 20 74 6f 20 	movl   $0x206f7420,0x14(%esi)
 804a07d:	c7 46 18 72 65 73 6f 	movl   $0x6f736572,0x18(%esi)
 804a084:	c7 46 1c 6c 76 65 20 	movl   $0x2065766c,0x1c(%esi)
 804a08b:	c7 46 20 73 65 72 76 	movl   $0x76726573,0x20(%esi)
 804a092:	c7 46 24 65 72 20 61 	movl   $0x61207265,0x24(%esi)
 804a099:	c7 46 28 64 64 72 65 	movl   $0x65726464,0x28(%esi)
 804a0a0:	66 c7 46 2c 73 73    	movw   $0x7373,0x2c(%esi)
 804a0a6:	c6 46 2e 00          	movb   $0x0,0x2e(%esi)
 804a0aa:	83 ec 0c             	sub    $0xc,%esp
 804a0ad:	53                   	push   %ebx
 804a0ae:	e8 8d e8 ff ff       	call   8048940 <close@plt>
 804a0b3:	83 c4 10             	add    $0x10,%esp
 804a0b6:	b8 ff ff ff ff       	mov    $0xffffffff,%eax
 804a0bb:	e9 9d 00 00 00       	jmp    804a15d <init_driver+0x1b9>
 804a0c0:	8d 7c 24 0c          	lea    0xc(%esp),%edi
 804a0c4:	c7 44 24 0c 00 00 00 	movl   $0x0,0xc(%esp)
 804a0cb:	00 
 804a0cc:	c7 44 24 10 00 00 00 	movl   $0x0,0x10(%esp)
 804a0d3:	00 
 804a0d4:	c7 44 24 14 00 00 00 	movl   $0x0,0x14(%esp)
 804a0db:	00 
 804a0dc:	c7 44 24 18 00 00 00 	movl   $0x0,0x18(%esp)
 804a0e3:	00 
 804a0e4:	66 c7 44 24 0c 02 00 	movw   $0x2,0xc(%esp)
 804a0eb:	6a 0c                	push   $0xc
 804a0ed:	ff 70 0c             	pushl  0xc(%eax)
 804a0f0:	8b 40 10             	mov    0x10(%eax),%eax
 804a0f3:	ff 30                	pushl  (%eax)
 804a0f5:	8d 44 24 1c          	lea    0x1c(%esp),%eax
 804a0f9:	50                   	push   %eax
 804a0fa:	e8 61 e7 ff ff       	call   8048860 <__memmove_chk@plt>
 804a0ff:	66 c7 44 24 1e 43 31 	movw   $0x3143,0x1e(%esp)
 804a106:	83 c4 0c             	add    $0xc,%esp
 804a109:	6a 10                	push   $0x10
 804a10b:	57                   	push   %edi
 804a10c:	53                   	push   %ebx
 804a10d:	e8 1e e8 ff ff       	call   8048930 <connect@plt>
 804a112:	83 c4 10             	add    $0x10,%esp
 804a115:	85 c0                	test   %eax,%eax
 804a117:	79 2a                	jns    804a143 <init_driver+0x19f>
 804a119:	83 ec 0c             	sub    $0xc,%esp
 804a11c:	68 28 ac 04 08       	push   $0x804ac28
 804a121:	68 e8 ab 04 08       	push   $0x804abe8
 804a126:	6a ff                	push   $0xffffffff
 804a128:	6a 01                	push   $0x1
 804a12a:	56                   	push   %esi
 804a12b:	e8 30 e8 ff ff       	call   8048960 <__sprintf_chk@plt>
 804a130:	83 c4 14             	add    $0x14,%esp
 804a133:	53                   	push   %ebx
 804a134:	e8 07 e8 ff ff       	call   8048940 <close@plt>
 804a139:	83 c4 10             	add    $0x10,%esp
 804a13c:	b8 ff ff ff ff       	mov    $0xffffffff,%eax
 804a141:	eb 1a                	jmp    804a15d <init_driver+0x1b9>
 804a143:	83 ec 0c             	sub    $0xc,%esp
 804a146:	53                   	push   %ebx
 804a147:	e8 f4 e7 ff ff       	call   8048940 <close@plt>
 804a14c:	66 c7 06 4f 4b       	movw   $0x4b4f,(%esi)
 804a151:	c6 46 02 00          	movb   $0x0,0x2(%esi)
 804a155:	83 c4 10             	add    $0x10,%esp
 804a158:	b8 00 00 00 00       	mov    $0x0,%eax
 804a15d:	8b 54 24 1c          	mov    0x1c(%esp),%edx
 804a161:	65 33 15 14 00 00 00 	xor    %gs:0x14,%edx
 804a168:	74 05                	je     804a16f <init_driver+0x1cb>
 804a16a:	e8 91 e6 ff ff       	call   8048800 <__stack_chk_fail@plt>
 804a16f:	83 c4 20             	add    $0x20,%esp
 804a172:	5b                   	pop    %ebx
 804a173:	5e                   	pop    %esi
 804a174:	5f                   	pop    %edi
 804a175:	c3                   	ret    

0804a176 <driver_post>:
 804a176:	53                   	push   %ebx
 804a177:	83 ec 08             	sub    $0x8,%esp
 804a17a:	8b 44 24 10          	mov    0x10(%esp),%eax
 804a17e:	8b 5c 24 1c          	mov    0x1c(%esp),%ebx
 804a182:	83 7c 24 18 00       	cmpl   $0x0,0x18(%esp)
 804a187:	74 26                	je     804a1af <driver_post+0x39>
 804a189:	83 ec 04             	sub    $0x4,%esp
 804a18c:	ff 74 24 18          	pushl  0x18(%esp)
 804a190:	68 3d ac 04 08       	push   $0x804ac3d
 804a195:	6a 01                	push   $0x1
 804a197:	e8 44 e7 ff ff       	call   80488e0 <__printf_chk@plt>
 804a19c:	66 c7 03 4f 4b       	movw   $0x4b4f,(%ebx)
 804a1a1:	c6 43 02 00          	movb   $0x0,0x2(%ebx)
 804a1a5:	83 c4 10             	add    $0x10,%esp
 804a1a8:	b8 00 00 00 00       	mov    $0x0,%eax
 804a1ad:	eb 3e                	jmp    804a1ed <driver_post+0x77>
 804a1af:	85 c0                	test   %eax,%eax
 804a1b1:	74 2c                	je     804a1df <driver_post+0x69>
 804a1b3:	80 38 00             	cmpb   $0x0,(%eax)
 804a1b6:	74 27                	je     804a1df <driver_post+0x69>
 804a1b8:	83 ec 04             	sub    $0x4,%esp
 804a1bb:	53                   	push   %ebx
 804a1bc:	ff 74 24 1c          	pushl  0x1c(%esp)
 804a1c0:	68 54 ac 04 08       	push   $0x804ac54
 804a1c5:	50                   	push   %eax
 804a1c6:	68 5b ac 04 08       	push   $0x804ac5b
 804a1cb:	68 31 43 00 00       	push   $0x4331
 804a1d0:	68 28 ac 04 08       	push   $0x804ac28
 804a1d5:	e8 cb f5 ff ff       	call   80497a5 <submitr>
 804a1da:	83 c4 20             	add    $0x20,%esp
 804a1dd:	eb 0e                	jmp    804a1ed <driver_post+0x77>
 804a1df:	66 c7 03 4f 4b       	movw   $0x4b4f,(%ebx)
 804a1e4:	c6 43 02 00          	movb   $0x0,0x2(%ebx)
 804a1e8:	b8 00 00 00 00       	mov    $0x0,%eax
 804a1ed:	83 c4 08             	add    $0x8,%esp
 804a1f0:	5b                   	pop    %ebx
 804a1f1:	c3                   	ret    
 804a1f2:	66 90                	xchg   %ax,%ax
 804a1f4:	66 90                	xchg   %ax,%ax
 804a1f6:	66 90                	xchg   %ax,%ax
 804a1f8:	66 90                	xchg   %ax,%ax
 804a1fa:	66 90                	xchg   %ax,%ax
 804a1fc:	66 90                	xchg   %ax,%ax
 804a1fe:	66 90                	xchg   %ax,%ax

0804a200 <__libc_csu_init>:
 804a200:	55                   	push   %ebp
 804a201:	57                   	push   %edi
 804a202:	56                   	push   %esi
 804a203:	53                   	push   %ebx
 804a204:	e8 a7 e7 ff ff       	call   80489b0 <__x86.get_pc_thunk.bx>
 804a209:	81 c3 f7 2d 00 00    	add    $0x2df7,%ebx
 804a20f:	83 ec 0c             	sub    $0xc,%esp
 804a212:	8b 6c 24 20          	mov    0x20(%esp),%ebp
 804a216:	8d b3 0c ff ff ff    	lea    -0xf4(%ebx),%esi
 804a21c:	e8 3f e5 ff ff       	call   8048760 <_init>
 804a221:	8d 83 08 ff ff ff    	lea    -0xf8(%ebx),%eax
 804a227:	29 c6                	sub    %eax,%esi
 804a229:	c1 fe 02             	sar    $0x2,%esi
 804a22c:	85 f6                	test   %esi,%esi
 804a22e:	74 25                	je     804a255 <__libc_csu_init+0x55>
 804a230:	31 ff                	xor    %edi,%edi
 804a232:	8d b6 00 00 00 00    	lea    0x0(%esi),%esi
 804a238:	83 ec 04             	sub    $0x4,%esp
 804a23b:	ff 74 24 2c          	pushl  0x2c(%esp)
 804a23f:	ff 74 24 2c          	pushl  0x2c(%esp)
 804a243:	55                   	push   %ebp
 804a244:	ff 94 bb 08 ff ff ff 	call   *-0xf8(%ebx,%edi,4)
 804a24b:	83 c7 01             	add    $0x1,%edi
 804a24e:	83 c4 10             	add    $0x10,%esp
 804a251:	39 f7                	cmp    %esi,%edi
 804a253:	75 e3                	jne    804a238 <__libc_csu_init+0x38>
 804a255:	83 c4 0c             	add    $0xc,%esp
 804a258:	5b                   	pop    %ebx
 804a259:	5e                   	pop    %esi
 804a25a:	5f                   	pop    %edi
 804a25b:	5d                   	pop    %ebp
 804a25c:	c3                   	ret    
 804a25d:	8d 76 00             	lea    0x0(%esi),%esi

0804a260 <__libc_csu_fini>:
 804a260:	f3 c3                	repz ret 

Disassembly of section .fini:

0804a264 <_fini>:
 804a264:	53                   	push   %ebx
 804a265:	83 ec 08             	sub    $0x8,%esp
 804a268:	e8 43 e7 ff ff       	call   80489b0 <__x86.get_pc_thunk.bx>
 804a26d:	81 c3 93 2d 00 00    	add    $0x2d93,%ebx
 804a273:	83 c4 08             	add    $0x8,%esp
 804a276:	5b                   	pop    %ebx
 804a277:	c3                   	ret    
